(lp1
(I624
S'6_note'
p2
tp3
a(I668
S'1_note'
p4
tp5
a(I672
g4
tp6
a(I727
g2
tp7
a(I738
g2
tp8
a(I753
S'6_minor'
p9
tp10
a(I764
g9
tp11
a(I767
g9
tp12
a(I768
g9
tp13
a(I770
g9
tp14
a(I771
g9
tp15
a(I772
S'1_major_seventh'
p16
tp17
a(I773
g9
tp18
a(I779
g9
tp19
a(I780
g9
tp20
a(I783
g9
tp21
a(I802
g9
tp22
a(I803
g9
tp23
a(I815
g9
tp24
a(I817
g9
tp25
a(I818
g9
tp26
a(I819
g9
tp27
a(I821
g9
tp28
a(I822
g9
tp29
a(I823
g9
tp30
a(I825
g9
tp31
a(I826
g9
tp32
a(I844
g9
tp33
a(I863
g9
tp34
a(I864
g9
tp35
a(I865
g9
tp36
a(I866
g9
tp37
a(I870
g9
tp38
a(I873
g9
tp39
a(I875
g9
tp40
a(I876
g9
tp41
a(I911
g9
tp42
a(I912
g9
tp43
a(I913
g9
tp44
a(I915
g9
tp45
a(I916
g9
tp46
a(I921
g9
tp47
a(I922
g9
tp48
a(I924
g9
tp49
a(I925
g9
tp50
a(I958
g9
tp51
a(I959
g9
tp52
a(I960
g9
tp53
a(I961
g9
tp54
a(I962
g9
tp55
a(I973
g9
tp56
a(I975
g9
tp57
a(I976
g9
tp58
a(I1011
g9
tp59
a(I1012
g9
tp60
a(I1046
g9
tp61
a(I1055
g9
tp62
a(I1056
g9
tp63
a(I1057
g9
tp64
a(I1058
g9
tp65
a(I1059
g9
tp66
a(I1067
g9
tp67
a(I1068
g9
tp68
a(I1069
g9
tp69
a(I1071
g9
tp70
a(I1095
S'2_minor_seventh'
p71
tp72
a(I1104
g71
tp73
a(I1105
S'0_dominant_ninth'
p74
tp75
a(I1106
g71
tp76
a(I1108
g71
tp77
a(I1112
g71
tp78
a(I1113
g71
tp79
a(I1114
S'6_suspended'
p80
tp81
a(I1115
g80
tp82
a(I1130
S'2_note'
p83
tp84
a(I1134
S'2_major'
p85
tp86
a(I1145
S'2_dominant_seventh'
p87
tp88
a(I1147
g87
tp89
a(I1148
g87
tp90
a(I1151
g87
tp91
a(I1152
g87
tp92
a(I1153
g87
tp93
a(I1154
S'2_dominant_ninth'
p94
tp95
a(I1155
g87
tp96
a(I1166
g87
tp97
a(I1167
g87
tp98
a(I1169
g87
tp99
a(I1204
g94
tp100
a(I1205
g87
tp101
a(I1247
g87
tp102
a(I1248
g94
tp103
a(I1249
g87
tp104
a(I1250
g87
tp105
a(I1254
g87
tp106
a(I1259
g87
tp107
a(I1261
g87
tp108
a(I1263
g87
tp109
a(I1264
g87
tp110
a(I1295
g87
tp111
a(I1296
g87
tp112
a(I1299
g87
tp113
a(I1300
g94
tp114
a(I1301
g87
tp115
a(I1305
g87
tp116
a(I1306
g87
tp117
a(I1309
g87
tp118
a(I1310
g87
tp119
a(I1332
g87
tp120
a(I1339
g87
tp121
a(I1340
g87
tp122
a(I1343
g87
tp123
a(I1344
g87
tp124
a(I1345
g94
tp125
a(I1346
g87
tp126
a(I1347
g87
tp127
a(I1349
g87
tp128
a(I1356
g87
tp129
a(I1357
g87
tp130
a(I1358
g87
tp131
a(I1359
g85
tp132
a(I1395
S'6_major_sixth'
p133
tp134
a(I1396
g85
tp135
a(I1439
g85
tp136
a(I1440
g94
tp137
a(I1441
g94
tp138
a(I1442
g87
tp139
a(I1443
g87
tp140
a(I1444
g85
tp141
a(I1453
g85
tp142
a(I1454
g85
tp143
a(I1457
g85
tp144
a(I1466
g85
tp145
a(I1488
g85
tp146
a(I1489
g85
tp147
a(I1490
g85
tp148
a(I1491
g85
tp149
a(I1492
g133
tp150
a(I1493
g85
tp151
a(I1494
g85
tp152
a(I1496
g85
tp153
a(I1498
g85
tp154
a(I1503
S'0_augmented'
p155
tp156
a(I1507
S'4_note'
p157
tp158
a(I1531
g83
tp159
a(I1532
S'5_major'
p160
tp161
a(I1535
g160
tp162
a(I1536
S'2_major_sixth'
p163
tp164
a(I1538
S'5_major_sixth'
p165
tp166
a(I1539
g160
tp167
a(I1540
g160
tp168
a(I1547
g160
tp169
a(I1549
g160
tp170
a(I1550
g160
tp171
a(I1551
g160
tp172
a(I1584
g160
tp173
a(I1588
g165
tp174
a(I1589
g160
tp175
a(I1626
S'5_major_seventh'
p176
tp177
a(I1631
g176
tp178
a(I1632
g176
tp179
a(I1633
S'1_major_ninth'
p180
tp181
a(I1634
g180
tp182
a(I1635
g176
tp183
a(I1636
g160
tp184
a(I1641
g160
tp185
a(I1642
g160
tp186
a(I1644
g160
tp187
a(I1645
g160
tp188
a(I1679
g160
tp189
a(I1680
g163
tp190
a(I1683
g160
tp191
a(I1684
g165
tp192
a(I1685
g160
tp193
a(I1689
g160
tp194
a(I1690
g160
tp195
a(I1691
g160
tp196
a(I1692
g160
tp197
a(I1693
g160
tp198
a(I1696
g160
tp199
a(I1698
g160
tp200
a(I1726
g165
tp201
a(I1727
g165
tp202
a(I1728
S'5_dominant_ninth'
p203
tp204
a(I1729
g203
tp205
a(I1730
g165
tp206
a(I1740
g165
tp207
a(I1743
g165
tp208
a(I1766
g165
tp209
a(I1768
g160
tp210
a(I1775
g160
tp211
a(I1779
g165
tp212
a(I1780
g160
tp213
a(I1798
g160
tp214
a(I1800
g160
tp215
a(I1815
g160
tp216
a(I1821
S'3_major_seventh'
p217
tp218
a(I1822
S'3_major_ninth'
p219
tp220
a(I1823
g219
tp221
a(I1824
g180
tp222
a(I1825
g180
tp223
a(I1826
g180
tp224
a(I1827
g180
tp225
a(I1828
g219
tp226
a(I1829
g165
tp227
a(I1834
g165
tp228
a(I1836
g165
tp229
a(I1837
g165
tp230
a(I1839
g165
tp231
a(I1848
g160
tp232
a(I1857
g160
tp233
a(I1866
g160
tp234
a(I1871
g160
tp235
a(I1872
g160
tp236
a(I1873
g160
tp237
a(I1876
g165
tp238
a(I1877
g160
tp239
a(I1880
g160
tp240
a(I1882
g160
tp241
a(I1891
g160
tp242
a(I1919
g160
tp243
a(I1920
g163
tp244
a(I1921
g203
tp245
a(I1922
g165
tp246
a(I1923
g165
tp247
a(I1924
g160
tp248
a(I1932
g160
tp249
a(I1933
g160
tp250
a(I1934
g160
tp251
a(I1939
g160
tp252
a(I1967
g163
tp253
a(I1968
g163
tp254
a(I1969
g163
tp255
a(I1970
g163
tp256
a(I1972
g203
tp257
a(I1973
g163
tp258
a(I1975
g163
tp259
a(I1976
g163
tp260
a(I1978
g163
tp261
a(I1980
g163
tp262
a(I2010
g163
tp263
a(I2013
g163
tp264
a(I2015
g163
tp265
a(I2016
S'6_minor_ninth'
p266
tp267
a(I2017
S'5_major_ninth'
p268
tp269
a(I2018
g268
tp270
a(I2019
g163
tp271
a(I2025
g163
tp272
a(I2027
g163
tp273
a(I2028
g163
tp274
a(I2030
g163
tp275
a(I2035
g160
tp276
a(I2063
g163
tp277
a(I2064
g163
tp278
a(I2065
g163
tp279
a(I2066
g163
tp280
a(I2067
g163
tp281
a(I2075
g163
tp282
a(I2076
g163
tp283
a(I2077
g163
tp284
a(I2078
g163
tp285
a(I2086
g160
tp286
a(I2088
g160
tp287
a(I2100
g160
tp288
a(I2108
g16
tp289
a(I2110
g160
tp290
a(I2111
g160
tp291
a(I2112
g160
tp292
a(I2113
g160
tp293
a(I2114
g160
tp294
a(I2115
g16
tp295
a(I2116
g160
tp296
a(I2120
g160
tp297
a(I2124
g160
tp298
a(I2126
g160
tp299
a(I2127
g160
tp300
a(I2128
g160
tp301
a(I2152
g160
tp302
a(I2159
g165
tp303
a(I2160
g203
tp304
a(I2161
g203
tp305
a(I2162
g268
tp306
a(I2163
g94
tp307
a(I2164
g165
tp308
a(I2166
g165
tp309
a(I2169
g165
tp310
a(I2185
g165
tp311
a(I2203
g160
tp312
a(I2205
g160
tp313
a(I2207
g165
tp314
a(I2208
g165
tp315
a(I2209
g165
tp316
a(I2210
g165
tp317
a(I2211
g165
tp318
a(I2219
g165
tp319
a(I2221
g165
tp320
a(I2224
g165
tp321
a(I2248
g165
tp322
a(I2255
g165
tp323
a(I2256
g203
tp324
a(I2257
g268
tp325
a(I2258
g94
tp326
a(I2259
g94
tp327
a(I2260
g165
tp328
a(I2264
g165
tp329
a(I2267
g165
tp330
a(I2268
g165
tp331
a(I2270
g165
tp332
a(I2273
g165
tp333
a(I2274
g165
tp334
a(I2275
g165
tp335
a(I2281
g165
tp336
a(I2284
g165
tp337
a(I2291
g203
tp338
a(I2293
S'2_suspended'
p339
tp340
a(I2295
g2
tp341
a(I2299
g2
tp342
a(I2300
g9
tp343
a(I2303
g9
tp344
a(I2304
g9
tp345
a(I2306
S'1_major_sixth'
p346
tp347
a(I2307
g346
tp348
a(I2308
g9
tp349
a(I2315
g9
tp350
a(I2317
g9
tp351
a(I2318
g9
tp352
a(I2320
g9
tp353
a(I2346
g9
tp354
a(I2352
g9
tp355
a(I2353
g9
tp356
a(I2354
g9
tp357
a(I2355
g9
tp358
a(I2356
g9
tp359
a(I2357
g9
tp360
a(I2359
g9
tp361
a(I2398
g9
tp362
a(I2399
g9
tp363
a(I2400
g9
tp364
a(I2401
g9
tp365
a(I2402
g9
tp366
a(I2403
g9
tp367
a(I2405
g9
tp368
a(I2411
g9
tp369
a(I2412
g9
tp370
a(I2414
g9
tp371
a(I2415
g9
tp372
a(I2436
g9
tp373
a(I2446
g346
tp374
a(I2447
g346
tp375
a(I2448
g346
tp376
a(I2450
g346
tp377
a(I2451
g346
tp378
a(I2452
g346
tp379
a(I2456
g346
tp380
a(I2457
g346
tp381
a(I2458
g346
tp382
a(I2460
g346
tp383
a(I2474
g346
tp384
a(I2475
g346
tp385
a(I2480
g346
tp386
a(I2494
g346
tp387
a(I2495
g346
tp388
a(I2496
g346
tp389
a(I2497
g9
tp390
a(I2498
g9
tp391
a(I2499
g9
tp392
a(I2507
g9
tp393
a(I2508
g9
tp394
a(I2509
g9
tp395
a(I2511
g9
tp396
a(I2530
g9
tp397
a(I2544
g9
tp398
a(I2546
g9
tp399
a(I2547
g9
tp400
a(I2548
g9
tp401
a(I2549
g9
tp402
a(I2550
g9
tp403
a(I2551
g9
tp404
a(I2552
g9
tp405
a(I2565
g9
tp406
a(I2590
g9
tp407
a(I2591
g9
tp408
a(I2592
g9
tp409
a(I2593
g9
tp410
a(I2594
g9
tp411
a(I2602
g9
tp412
a(I2604
g9
tp413
a(I2605
g9
tp414
a(I2608
g9
tp415
a(I2635
g9
tp416
a(I2638
g346
tp417
a(I2640
g346
tp418
a(I2641
g346
tp419
a(I2642
g346
tp420
a(I2644
g346
tp421
a(I2649
g346
tp422
a(I2650
g346
tp423
a(I2652
S'1_dominant_ninth'
p424
tp425
a(I2653
g424
tp426
a(I2654
S'5_minor_sixth'
p427
tp428
a(I2655
g427
tp429
a(I2661
S'1_major'
p430
tp431
a(I2667
g133
tp432
a(I2680
g155
tp433
a(I2683
g85
tp434
a(I2686
g85
tp435
a(I2687
g85
tp436
a(I2688
g85
tp437
a(I2690
g133
tp438
a(I2691
g85
tp439
a(I2692
g85
tp440
a(I2700
g85
tp441
a(I2702
g85
tp442
a(I2703
g85
tp443
a(I2718
g85
tp444
a(I2736
g85
tp445
a(I2737
g85
tp446
a(I2738
g85
tp447
a(I2739
g85
tp448
a(I2740
g133
tp449
a(I2741
g85
tp450
a(I2742
g85
tp451
a(I2744
g85
tp452
a(I2747
g85
tp453
a(I2748
g85
tp454
a(I2782
g85
tp455
a(I2783
g85
tp456
a(I2784
g87
tp457
a(I2785
g94
tp458
a(I2786
g85
tp459
a(I2792
g85
tp460
a(I2793
g85
tp461
a(I2794
g85
tp462
a(I2796
g85
tp463
a(I2826
g85
tp464
a(I2830
S'0_major_sixth'
p465
tp466
a(I2831
g465
tp467
a(I2832
g465
tp468
a(I2833
g465
tp469
a(I2834
g465
tp470
a(I2835
g219
tp471
a(I2836
g465
tp472
a(I2841
g465
tp473
a(I2843
g465
tp474
a(I2844
g465
tp475
a(I2864
g85
tp476
a(I2878
g85
tp477
a(I2879
g85
tp478
a(I2880
g133
tp479
a(I2881
g85
tp480
a(I2883
g85
tp481
a(I2884
g85
tp482
a(I2891
g85
tp483
a(I2892
g85
tp484
a(I2893
g85
tp485
a(I2894
g85
tp486
a(I2897
g85
tp487
a(I2910
g85
tp488
a(I2926
g133
tp489
a(I2928
g133
tp490
a(I2930
g133
tp491
a(I2931
g133
tp492
a(I2932
g133
tp493
a(I2935
g133
tp494
a(I2936
g133
tp495
a(I2937
g133
tp496
a(I2940
g133
tp497
a(I2975
g133
tp498
a(I2976
g94
tp499
a(I2977
g94
tp500
a(I2978
g94
tp501
a(I2979
g133
tp502
a(I2983
g133
tp503
a(I2984
g85
tp504
a(I2988
g85
tp505
a(I2989
g85
tp506
a(I2991
g85
tp507
a(I2992
g85
tp508
a(I3022
g465
tp509
a(I3024
g85
tp510
a(I3025
g465
tp511
a(I3026
g465
tp512
a(I3028
g219
tp513
a(I3029
g465
tp514
a(I3030
g465
tp515
a(I3033
g465
tp516
a(I3035
g83
tp517
a(I3037
S'5_note'
p518
tp519
a(I3067
g83
tp520
a(I3068
g160
tp521
a(I3071
g160
tp522
a(I3072
g163
tp523
a(I3073
g165
tp524
a(I3074
g160
tp525
a(I3075
g160
tp526
a(I3083
g160
tp527
a(I3085
g160
tp528
a(I3087
g160
tp529
a(I3101
g160
tp530
a(I3119
g160
tp531
a(I3120
g160
tp532
a(I3121
g160
tp533
a(I3122
g160
tp534
a(I3124
g165
tp535
a(I3125
g160
tp536
a(I3126
g160
tp537
a(I3167
g160
tp538
a(I3168
g180
tp539
a(I3169
g16
tp540
a(I3170
g16
tp541
a(I3171
g160
tp542
a(I3176
g160
tp543
a(I3178
g160
tp544
a(I3179
g160
tp545
a(I3181
g160
tp546
a(I3182
g160
tp547
a(I3206
g160
tp548
a(I3214
g165
tp549
a(I3215
g165
tp550
a(I3216
g203
tp551
a(I3217
g203
tp552
a(I3218
g165
tp553
a(I3219
g165
tp554
a(I3220
g165
tp555
a(I3225
g165
tp556
a(I3227
g165
tp557
a(I3229
g165
tp558
a(I3254
g165
tp559
a(I3255
g160
tp560
a(I3259
g160
tp561
a(I3262
g165
tp562
a(I3263
g165
tp563
a(I3264
g203
tp564
a(I3265
g203
tp565
a(I3266
g203
tp566
a(I3267
g165
tp567
a(I3276
g165
tp568
a(I3277
g165
tp569
a(I3279
g165
tp570
a(I3296
g160
tp571
a(I3305
g160
tp572
a(I3311
g160
tp573
a(I3312
g160
tp574
a(I3315
g160
tp575
a(I3316
g165
tp576
a(I3317
g160
tp577
a(I3319
g160
tp578
a(I3320
g160
tp579
a(I3321
g160
tp580
a(I3326
g160
tp581
a(I3344
g160
tp582
a(I3358
g165
tp583
a(I3359
g165
tp584
a(I3360
g180
tp585
a(I3361
g180
tp586
a(I3362
g180
tp587
a(I3363
g180
tp588
a(I3364
g165
tp589
a(I3371
g165
tp590
a(I3373
g165
tp591
a(I3376
g165
tp592
a(I3392
g160
tp593
a(I3398
g160
tp594
a(I3406
g165
tp595
a(I3408
g165
tp596
a(I3409
S'5_dominant_minor_ninth'
p597
tp598
a(I3410
g165
tp599
a(I3411
g165
tp600
a(I3414
g165
tp601
a(I3415
g165
tp602
a(I3417
g165
tp603
a(I3418
g165
tp604
a(I3424
g165
tp605
a(I3443
g165
tp606
a(I3444
g165
tp607
a(I3453
g180
tp608
a(I3454
g180
tp609
a(I3455
g180
tp610
a(I3456
g165
tp611
a(I3457
g165
tp612
a(I3458
g180
tp613
a(I3459
g16
tp614
a(I3460
g160
tp615
a(I3469
g160
tp616
a(I3470
g160
tp617
a(I3471
g160
tp618
a(I3486
S'5_dominant_seventh'
p619
tp620
a(I3496
g219
tp621
a(I3499
g219
tp622
a(I3505
g165
tp623
a(I3507
g165
tp624
a(I3508
g165
tp625
a(I3510
g16
tp626
a(I3513
g16
tp627
a(I3516
g16
tp628
a(I3517
g16
tp629
a(I3519
g160
tp630
a(I3522
g163
tp631
a(I3524
g163
tp632
a(I3529
g160
tp633
a(I3549
S'1_minor_seventh'
p634
tp635
a(I3550
g160
tp636
a(I3555
g634
tp637
a(I3556
g634
tp638
a(I3557
g160
tp639
a(I3572
g83
tp640
a(I3573
g83
tp641
a(I3648
g83
tp642
a(I3696
S'3_note'
p643
tp644
a(I3792
g2
tp645
a(I3813
g2
tp646
a(I3826
g2
tp647
a(I3835
g9
tp648
a(I3836
g9
tp649
a(I3839
g9
tp650
a(I3840
g9
tp651
a(I3841
g9
tp652
a(I3842
g16
tp653
a(I3843
g16
tp654
a(I3844
g9
tp655
a(I3850
g9
tp656
a(I3851
g9
tp657
a(I3852
g9
tp658
a(I3855
g9
tp659
a(I3892
g9
tp660
a(I3893
g9
tp661
a(I3923
g9
tp662
a(I3935
g9
tp663
a(I3936
g9
tp664
a(I3937
g346
tp665
a(I3938
g346
tp666
a(I3939
g346
tp667
a(I3945
g346
tp668
a(I3946
g346
tp669
a(I3947
g346
tp670
a(I3950
g346
tp671
a(I3960
g9
tp672
a(I3983
g9
tp673
a(I3984
g9
tp674
a(I3985
g9
tp675
a(I3986
g9
tp676
a(I3987
g9
tp677
a(I3988
g9
tp678
a(I3992
g9
tp679
a(I3993
g9
tp680
a(I3994
g9
tp681
a(I3995
g9
tp682
a(I4030
g9
tp683
a(I4031
g9
tp684
a(I4032
g9
tp685
a(I4033
g9
tp686
a(I4034
g9
tp687
a(I4036
g9
tp688
a(I4042
g9
tp689
a(I4043
g9
tp690
a(I4044
g9
tp691
a(I4046
g9
tp692
a(I4050
g9
tp693
a(I4080
g346
tp694
a(I4083
g346
tp695
a(I4084
g346
tp696
a(I4103
g346
tp697
a(I4127
g346
tp698
a(I4128
g346
tp699
a(I4129
g346
tp700
a(I4130
g346
tp701
a(I4138
g346
tp702
a(I4141
g346
tp703
a(I4142
g346
tp704
a(I4174
g424
tp705
a(I4176
g424
tp706
a(I4177
g424
tp707
a(I4178
g424
tp708
a(I4179
g424
tp709
a(I4180
g424
tp710
a(I4181
g424
tp711
a(I4182
g424
tp712
a(I4184
g424
tp713
a(I4186
S'6_diminished'
p714
tp715
a(I4187
g4
tp716
a(I4188
g83
tp717
a(I4199
g83
tp718
a(I4219
g83
tp719
a(I4220
g85
tp720
a(I4223
g85
tp721
a(I4224
g85
tp722
a(I4225
g85
tp723
a(I4226
g133
tp724
a(I4227
g85
tp725
a(I4228
g85
tp726
a(I4237
g85
tp727
a(I4238
g85
tp728
a(I4240
g85
tp729
a(I4266
g85
tp730
a(I4272
g465
tp731
a(I4273
g465
tp732
a(I4274
g465
tp733
a(I4275
g465
tp734
a(I4276
g219
tp735
a(I4277
g465
tp736
a(I4278
g465
tp737
a(I4279
g465
tp738
a(I4281
g465
tp739
a(I4282
g465
tp740
a(I4312
g85
tp741
a(I4319
g85
tp742
a(I4320
g94
tp743
a(I4321
g87
tp744
a(I4322
g87
tp745
a(I4323
g85
tp746
a(I4330
g85
tp747
a(I4332
g85
tp748
a(I4334
g85
tp749
a(I4367
g85
tp750
a(I4368
g85
tp751
a(I4369
g85
tp752
a(I4370
g85
tp753
a(I4372
g133
tp754
a(I4373
g85
tp755
a(I4378
g85
tp756
a(I4380
g85
tp757
a(I4381
g85
tp758
a(I4382
g85
tp759
a(I4383
g85
tp760
a(I4414
g85
tp761
a(I4415
g85
tp762
a(I4416
g85
tp763
a(I4417
g133
tp764
a(I4418
g85
tp765
a(I4419
g85
tp766
a(I4429
g85
tp767
a(I4430
g85
tp768
a(I4433
g85
tp769
a(I4458
g85
tp770
a(I4464
g85
tp771
a(I4466
g85
tp772
a(I4467
g133
tp773
a(I4468
g85
tp774
a(I4472
g85
tp775
a(I4473
g85
tp776
a(I4474
g85
tp777
a(I4484
g85
tp778
a(I4505
g85
tp779
a(I4511
g85
tp780
a(I4512
g87
tp781
a(I4513
g94
tp782
a(I4514
g85
tp783
a(I4518
g85
tp784
a(I4521
g85
tp785
a(I4522
g85
tp786
a(I4525
g85
tp787
a(I4539
g85
tp788
a(I4559
g85
tp789
a(I4560
g85
tp790
a(I4561
g85
tp791
a(I4562
S'0_dominant_seventh'
p792
tp793
a(I4563
g85
tp794
a(I4565
g85
tp795
a(I4566
g85
tp796
a(I4569
g85
tp797
a(I4570
g85
tp798
a(I4572
g85
tp799
a(I4577
g85
tp800
a(I4580
g83
tp801
a(I4603
g83
tp802
a(I4604
g160
tp803
a(I4607
g160
tp804
a(I4608
g163
tp805
a(I4609
g163
tp806
a(I4610
g165
tp807
a(I4611
g160
tp808
a(I4621
g160
tp809
a(I4623
g160
tp810
a(I4625
g160
tp811
a(I4632
g165
tp812
a(I4656
g165
tp813
a(I4657
g160
tp814
a(I4658
g160
tp815
a(I4660
g165
tp816
a(I4661
g160
tp817
a(I4662
g160
tp818
a(I4663
g160
tp819
a(I4665
g160
tp820
a(I4666
g160
tp821
a(I4699
g176
tp822
a(I4703
g176
tp823
a(I4704
g180
tp824
a(I4705
g180
tp825
a(I4706
g180
tp826
a(I4707
g180
tp827
a(I4708
g176
tp828
a(I4709
g176
tp829
a(I4715
g176
tp830
a(I4717
g176
tp831
a(I4719
g176
tp832
a(I4723
g160
tp833
a(I4751
g160
tp834
a(I4752
g163
tp835
a(I4754
g160
tp836
a(I4755
g165
tp837
a(I4756
g160
tp838
a(I4762
g160
tp839
a(I4763
g160
tp840
a(I4764
g160
tp841
a(I4766
g160
tp842
a(I4798
g165
tp843
a(I4799
g165
tp844
a(I4800
g203
tp845
a(I4801
g203
tp846
a(I4802
g203
tp847
a(I4803
g203
tp848
a(I4804
g165
tp849
a(I4808
g165
tp850
a(I4811
g165
tp851
a(I4813
g165
tp852
a(I4815
g165
tp853
a(I4824
g165
tp854
a(I4843
g160
tp855
a(I4845
g160
tp856
a(I4846
g160
tp857
a(I4848
g160
tp858
a(I4849
g160
tp859
a(I4851
g160
tp860
a(I4852
g165
tp861
a(I4853
g160
tp862
a(I4855
g160
tp863
a(I4875
g160
tp864
a(I4882
g160
tp865
a(I4894
g165
tp866
a(I4895
g165
tp867
a(I4896
g180
tp868
a(I4897
g180
tp869
a(I4899
g180
tp870
a(I4900
g165
tp871
a(I4906
g165
tp872
a(I4908
g165
tp873
a(I4909
g165
tp874
a(I4911
g165
tp875
a(I4919
g165
tp876
a(I4920
g160
tp877
a(I4942
g160
tp878
a(I4943
g160
tp879
a(I4944
g160
tp880
a(I4945
g160
tp881
a(I4946
g160
tp882
a(I4948
g165
tp883
a(I4949
g160
tp884
a(I4952
g160
tp885
a(I4953
g160
tp886
a(I4954
g160
tp887
a(I4991
g160
tp888
a(I4992
g163
tp889
a(I4993
g203
tp890
a(I4994
g160
tp891
a(I4995
g160
tp892
a(I5001
g160
tp893
a(I5003
g160
tp894
a(I5004
g160
tp895
a(I5005
g160
tp896
a(I5008
g160
tp897
a(I5039
g160
tp898
a(I5040
g163
tp899
a(I5041
g160
tp900
a(I5042
g160
tp901
a(I5043
g165
tp902
a(I5045
g160
tp903
a(I5046
g160
tp904
a(I5047
g160
tp905
a(I5049
g160
tp906
a(I5088
g180
tp907
a(I5089
g16
tp908
a(I5090
g160
tp909
a(I5094
g160
tp910
a(I5096
g160
tp911
a(I5097
g160
tp912
a(I5099
g160
tp913
a(I5101
g160
tp914
a(I5112
g160
tp915
a(I5114
g160
tp916
a(I5134
g160
tp917
a(I5135
g160
tp918
a(I5136
g163
tp919
a(I5137
g160
tp920
a(I5139
g165
tp921
a(I5140
g160
tp922
a(I5146
g160
tp923
a(I5148
g160
tp924
a(I5149
g160
tp925
a(I5156
g160
tp926
a(I5165
g160
tp927
a(I5183
g160
tp928
a(I5184
g203
tp929
a(I5185
g203
tp930
a(I5186
g203
tp931
a(I5187
g165
tp932
a(I5194
g165
tp933
a(I5195
g165
tp934
a(I5196
g165
tp935
a(I5199
g165
tp936
a(I5219
g165
tp937
a(I5223
g160
tp938
a(I5224
g160
tp939
a(I5231
g160
tp940
a(I5232
g165
tp941
a(I5233
g165
tp942
a(I5235
g165
tp943
a(I5236
g165
tp944
a(I5237
g165
tp945
a(I5238
g165
tp946
a(I5262
g165
tp947
a(I5279
g165
tp948
a(I5280
g180
tp949
a(I5281
g180
tp950
a(I5283
g180
tp951
a(I5284
g160
tp952
a(I5291
g160
tp953
a(I5292
g160
tp954
a(I5293
g160
tp955
a(I5294
g160
tp956
a(I5296
g160
tp957
a(I5304
g160
tp958
a(I5328
g163
tp959
a(I5329
g163
tp960
a(I5331
g163
tp961
a(I5332
g203
tp962
a(I5333
g163
tp963
a(I5334
g163
tp964
a(I5335
g163
tp965
a(I5336
g163
tp966
a(I5338
g163
tp967
a(I5347
g339
tp968
a(I5348
g339
tp969
a(I5349
g339
tp970
a(I5352
g339
tp971
a(I5362
g339
tp972
a(I5365
g2
tp973
a(I5372
g9
tp974
a(I5375
g9
tp975
a(I5376
g9
tp976
a(I5377
g9
tp977
a(I5378
g9
tp978
a(I5379
g9
tp979
a(I5389
g9
tp980
a(I5391
g9
tp981
a(I5393
g9
tp982
a(I5423
g9
tp983
a(I5425
g9
tp984
a(I5426
g9
tp985
a(I5427
g9
tp986
a(I5428
g9
tp987
a(I5429
g9
tp988
a(I5431
g9
tp989
a(I5432
g9
tp990
a(I5434
g9
tp991
a(I5459
g9
tp992
a(I5471
g9
tp993
a(I5472
g9
tp994
a(I5473
g346
tp995
a(I5474
g346
tp996
a(I5475
g346
tp997
a(I5480
g346
tp998
a(I5482
g346
tp999
a(I5485
g346
tp1000
a(I5486
g346
tp1001
a(I5487
g346
tp1002
a(I5496
g9
tp1003
a(I5503
g9
tp1004
a(I5519
g9
tp1005
a(I5520
g9
tp1006
a(I5521
g9
tp1007
a(I5522
g9
tp1008
a(I5523
g9
tp1009
a(I5524
g9
tp1010
a(I5527
g9
tp1011
a(I5532
g9
tp1012
a(I5533
g9
tp1013
a(I5534
g9
tp1014
a(I5536
g9
tp1015
a(I5566
g9
tp1016
a(I5567
g9
tp1017
a(I5568
g9
tp1018
a(I5569
g9
tp1019
a(I5570
g9
tp1020
a(I5571
g9
tp1021
a(I5581
g9
tp1022
a(I5583
g9
tp1023
a(I5584
g9
tp1024
a(I5596
g9
tp1025
a(I5606
g9
tp1026
a(I5614
g9
tp1027
a(I5615
g9
tp1028
a(I5619
g9
tp1029
a(I5620
g9
tp1030
a(I5646
g9
tp1031
a(I5663
g9
tp1032
a(I5664
g9
tp1033
a(I5665
g346
tp1034
a(I5666
g346
tp1035
a(I5667
g346
tp1036
a(I5676
g346
tp1037
a(I5678
g346
tp1038
a(I5679
g346
tp1039
a(I5680
g346
tp1040
a(I5686
g346
tp1041
a(I5692
g9
tp1042
a(I5694
g9
tp1043
a(I5709
g9
tp1044
a(I5712
g9
tp1045
a(I5713
g9
tp1046
a(I5714
g9
tp1047
a(I5716
g9
tp1048
a(I5717
g9
tp1049
a(I5719
g9
tp1050
a(I5720
g9
tp1051
a(I5721
g9
tp1052
a(I5722
g4
tp1053
a(I5734
g4
tp1054
a(I5755
S'4_major'
tp1055
a(I5756
g87
tp1056
a(I5759
g87
tp1057
a(I5760
g87
tp1058
a(I5762
g94
tp1059
a(I5763
g133
tp1060
a(I5764
g85
tp1061
a(I5771
g85
tp1062
a(I5773
g85
tp1063
a(I5774
g85
tp1064
a(I5776
g85
tp1065
a(I5781
g85
tp1066
a(I5808
g465
tp1067
a(I5809
g465
tp1068
a(I5810
g465
tp1069
a(I5811
g465
tp1070
a(I5812
g219
tp1071
a(I5813
g465
tp1072
a(I5815
g465
tp1073
a(I5816
g465
tp1074
a(I5817
g465
tp1075
a(I5819
g465
tp1076
a(I5855
g465
tp1077
a(I5856
g94
tp1078
a(I5857
g268
tp1079
a(I5858
g465
tp1080
a(I5865
g465
tp1081
a(I5866
g465
tp1082
a(I5868
g465
tp1083
a(I5869
g465
tp1084
a(I5871
g465
tp1085
a(I5877
g85
tp1086
a(I5903
g85
tp1087
a(I5904
g85
tp1088
a(I5905
g85
tp1089
a(I5906
g85
tp1090
a(I5907
g133
tp1091
a(I5908
g85
tp1092
a(I5915
g85
tp1093
a(I5916
g85
tp1094
a(I5917
g85
tp1095
a(I5918
g85
tp1096
a(I5949
g85
tp1097
a(I5951
g85
tp1098
a(I5952
g133
tp1099
a(I5953
g85
tp1100
a(I5954
g85
tp1101
a(I5957
g85
tp1102
a(I5966
g85
tp1103
a(I5967
g85
tp1104
a(I5968
g85
tp1105
a(I5980
g85
tp1106
a(I6000
g85
tp1107
a(I6002
g85
tp1108
a(I6003
g133
tp1109
a(I6004
g85
tp1110
a(I6007
g85
tp1111
a(I6008
g85
tp1112
a(I6010
g85
tp1113
a(I6028
g85
tp1114
a(I6047
g85
tp1115
a(I6048
g94
tp1116
a(I6049
g94
tp1117
a(I6050
g465
tp1118
a(I6059
g465
tp1119
a(I6061
g465
tp1120
a(I6062
g465
tp1121
a(I6066
g465
tp1122
a(I6077
g85
tp1123
a(I6078
g85
tp1124
a(I6083
g85
tp1125
a(I6096
g465
tp1126
a(I6097
g465
tp1127
a(I6098
g268
tp1128
a(I6099
g268
tp1129
a(I6100
g465
tp1130
a(I6103
g465
tp1131
a(I6104
g465
tp1132
a(I6105
g465
tp1133
a(I6106
g85
tp1134
a(I6108
g83
tp1135
a(I6109
g518
tp1136
a(I6139
g83
tp1137
a(I6140
g160
tp1138
a(I6143
g160
tp1139
a(I6144
g163
tp1140
a(I6145
g163
tp1141
a(I6146
g203
tp1142
a(I6147
g160
tp1143
a(I6156
g160
tp1144
a(I6158
g160
tp1145
a(I6159
g160
tp1146
a(I6161
g160
tp1147
a(I6192
g160
tp1148
a(I6193
g160
tp1149
a(I6195
g160
tp1150
a(I6196
g165
tp1151
a(I6197
g160
tp1152
a(I6198
g160
tp1153
a(I6199
g160
tp1154
a(I6201
g160
tp1155
a(I6204
g160
tp1156
a(I6235
g176
tp1157
a(I6238
g176
tp1158
a(I6239
g176
tp1159
a(I6240
g180
tp1160
a(I6241
g180
tp1161
a(I6243
g180
tp1162
a(I6244
g176
tp1163
a(I6246
g176
tp1164
a(I6250
g176
tp1165
a(I6251
g176
tp1166
a(I6252
g176
tp1167
a(I6254
g176
tp1168
a(I6258
g160
tp1169
a(I6287
g160
tp1170
a(I6288
g163
tp1171
a(I6289
g163
tp1172
a(I6290
g160
tp1173
a(I6292
g165
tp1174
a(I6293
g160
tp1175
a(I6297
g160
tp1176
a(I6299
g160
tp1177
a(I6302
g160
tp1178
a(I6304
g160
tp1179
a(I6334
g160
tp1180
a(I6335
g165
tp1181
a(I6336
g203
tp1182
a(I6337
g203
tp1183
a(I6338
g165
tp1184
a(I6348
g165
tp1185
a(I6350
g165
tp1186
a(I6354
g165
tp1187
a(I6369
g165
tp1188
a(I6376
g160
tp1189
a(I6383
g160
tp1190
a(I6384
g160
tp1191
a(I6386
g160
tp1192
a(I6387
g165
tp1193
a(I6388
g160
tp1194
a(I6391
g160
tp1195
a(I6393
g160
tp1196
a(I6396
g160
tp1197
a(I6409
g160
tp1198
a(I6413
g160
tp1199
a(I6430
g165
tp1200
a(I6431
g165
tp1201
a(I6432
g165
tp1202
a(I6433
g180
tp1203
a(I6434
g180
tp1204
a(I6435
g180
tp1205
a(I6436
g165
tp1206
a(I6446
g165
tp1207
a(I6447
g165
tp1208
a(I6449
g165
tp1209
a(I6450
g165
tp1210
a(I6453
g165
tp1211
a(I6462
g165
tp1212
a(I6463
g160
tp1213
a(I6479
g160
tp1214
a(I6480
g160
tp1215
a(I6481
g160
tp1216
a(I6482
g160
tp1217
a(I6484
g165
tp1218
a(I6485
g160
tp1219
a(I6488
g160
tp1220
a(I6489
g160
tp1221
a(I6491
g160
tp1222
a(I6494
g160
tp1223
a(I6502
g160
tp1224
a(I6527
g163
tp1225
a(I6528
g163
tp1226
a(I6529
g203
tp1227
a(I6530
g163
tp1228
a(I6531
g163
tp1229
a(I6538
g163
tp1230
a(I6540
g163
tp1231
a(I6542
g163
tp1232
a(I6556
g160
tp1233
a(I6575
g163
tp1234
a(I6576
g163
tp1235
a(I6577
g163
tp1236
a(I6578
g163
tp1237
a(I6579
g163
tp1238
a(I6580
g203
tp1239
a(I6581
g163
tp1240
a(I6582
g163
tp1241
a(I6617
g160
tp1242
a(I6623
g160
tp1243
a(I6624
g16
tp1244
a(I6625
g163
tp1245
a(I6626
g163
tp1246
a(I6627
g160
tp1247
a(I6633
g160
tp1248
a(I6634
g160
tp1249
a(I6635
g160
tp1250
a(I6637
g160
tp1251
a(I6643
g160
tp1252
a(I6645
g160
tp1253
a(I6671
g160
tp1254
a(I6672
g163
tp1255
a(I6673
g163
tp1256
a(I6674
g160
tp1257
a(I6676
g165
tp1258
a(I6677
g160
tp1259
a(I6680
g160
tp1260
a(I6682
g160
tp1261
a(I6683
g160
tp1262
a(I6684
g160
tp1263
a(I6711
g160
tp1264
a(I6718
g160
tp1265
a(I6719
g160
tp1266
a(I6720
g180
tp1267
a(I6721
g180
tp1268
a(I6722
g16
tp1269
a(I6723
g16
tp1270
a(I6730
g16
tp1271
a(I6731
g16
tp1272
a(I6732
g16
tp1273
a(I6733
g16
tp1274
a(I6748
g16
tp1275
a(I6766
g16
tp1276
a(I6767
g180
tp1277
a(I6768
g180
tp1278
a(I6769
g180
tp1279
a(I6770
g180
tp1280
a(I6771
g180
tp1281
a(I6772
g180
tp1282
a(I6773
g180
tp1283
a(I6774
g180
tp1284
a(I6775
g180
tp1285
a(I6796
g165
tp1286
a(I6810
g160
tp1287
a(I6815
g160
tp1288
a(I6816
g16
tp1289
a(I6817
g74
tp1290
a(I6818
g74
tp1291
a(I6819
g160
tp1292
a(I6828
g160
tp1293
a(I6829
g160
tp1294
a(I6830
g160
tp1295
a(I6833
g160
tp1296
a(I6862
g160
tp1297
a(I6864
g163
tp1298
a(I6865
g160
tp1299
a(I6866
g160
tp1300
a(I6867
g160
tp1301
a(I6868
g165
tp1302
a(I6869
g160
tp1303
a(I6872
g160
tp1304
a(I6873
g160
tp1305
a(I6874
g160
tp1306
a(I6876
g160
tp1307
a(I6882
g160
tp1308
a(I6886
g83
tp1309
a(I6888
g83
tp1310
a(I6889
g83
tp1311
a(I6890
g83
tp1312
a(I6891
g518
tp1313
a(I6908
g346
tp1314
a(I6909
g346
tp1315
a(I6910
g346
tp1316
a(I6911
g346
tp1317
a(I6912
g346
tp1318
a(I6913
g346
tp1319
a(I6914
g266
tp1320
a(I6915
g16
tp1321
a(I6916
g9
tp1322
a(I6917
g9
tp1323
a(I6922
g9
tp1324
a(I6923
g9
tp1325
a(I6925
g9
tp1326
a(I6959
g9
tp1327
a(I6961
g9
tp1328
a(I6962
g9
tp1329
a(I6964
g9
tp1330
a(I6965
g9
tp1331
a(I6967
g9
tp1332
a(I6968
g9
tp1333
a(I6969
g9
tp1334
a(I6975
g9
tp1335
a(I7008
g9
tp1336
a(I7009
g346
tp1337
a(I7010
g346
tp1338
a(I7016
g346
tp1339
a(I7018
g346
tp1340
a(I7020
g346
tp1341
a(I7023
g346
tp1342
a(I7024
g346
tp1343
a(I7033
g9
tp1344
a(I7055
g9
tp1345
a(I7056
g9
tp1346
a(I7057
g9
tp1347
a(I7059
g9
tp1348
a(I7060
g9
tp1349
a(I7066
g9
tp1350
a(I7067
g9
tp1351
a(I7069
g9
tp1352
a(I7071
g9
tp1353
a(I7101
g16
tp1354
a(I7102
g16
tp1355
a(I7103
g16
tp1356
a(I7104
g16
tp1357
a(I7105
g16
tp1358
a(I7106
g16
tp1359
a(I7107
g16
tp1360
a(I7108
g16
tp1361
a(I7116
g16
tp1362
a(I7117
g16
tp1363
a(I7118
g16
tp1364
a(I7135
g16
tp1365
a(I7137
g16
tp1366
a(I7150
g16
tp1367
a(I7151
g16
tp1368
a(I7152
g266
tp1369
a(I7154
g266
tp1370
a(I7155
g266
tp1371
a(I7156
g266
tp1372
a(I7159
g266
tp1373
a(I7160
g266
tp1374
a(I7162
g266
tp1375
a(I7198
g266
tp1376
a(I7199
g266
tp1377
a(I7200
g266
tp1378
a(I7201
g266
tp1379
a(I7202
g266
tp1380
a(I7203
g266
tp1381
a(I7210
g266
tp1382
a(I7212
g266
tp1383
a(I7216
g266
tp1384
a(I7219
g16
tp1385
a(I7222
g16
tp1386
a(I7246
g16
tp1387
a(I7248
g16
tp1388
a(I7249
g16
tp1389
a(I7250
g16
tp1390
a(I7251
g16
tp1391
a(I7252
g16
tp1392
a(I7253
g16
tp1393
a(I7255
g16
tp1394
a(I7257
g16
tp1395
a(I7258
g16
tp1396
a(I7259
g16
tp1397
a(I7264
g16
tp1398
a(I7270
g16
tp1399
a(I7272
g16
tp1400
a(I7273
g160
tp1401
a(I7274
g160
tp1402
a(I7275
g4
tp1403
a(I7283
g2
tp1404
a(I7292
g85
tp1405
a(I7293
g85
tp1406
a(I7295
g85
tp1407
a(I7296
g85
tp1408
a(I7298
g163
tp1409
a(I7299
g94
tp1410
a(I7300
g163
tp1411
a(I7310
g163
tp1412
a(I7311
g163
tp1413
a(I7313
g163
tp1414
a(I7348
g94
tp1415
a(I7349
g163
tp1416
a(I7391
g163
tp1417
a(I7392
g94
tp1418
a(I7393
S'0_major_ninth'
p1419
tp1420
a(I7394
g163
tp1421
a(I7400
g163
tp1422
a(I7403
g163
tp1423
a(I7404
g85
tp1424
a(I7407
g85
tp1425
a(I7439
g85
tp1426
a(I7440
g85
tp1427
a(I7441
g85
tp1428
a(I7443
g133
tp1429
a(I7444
g85
tp1430
a(I7448
g85
tp1431
a(I7451
g85
tp1432
a(I7452
g85
tp1433
a(I7486
g85
tp1434
a(I7487
g85
tp1435
a(I7488
g133
tp1436
a(I7489
g85
tp1437
a(I7490
g85
tp1438
a(I7500
g85
tp1439
a(I7501
g85
tp1440
a(I7502
g85
tp1441
a(I7536
g85
tp1442
a(I7537
g85
tp1443
a(I7539
g133
tp1444
a(I7540
g85
tp1445
a(I7542
g85
tp1446
a(I7544
g85
tp1447
a(I7545
g85
tp1448
a(I7568
g85
tp1449
a(I7583
g85
tp1450
a(I7584
g94
tp1451
a(I7585
g94
tp1452
a(I7586
g87
tp1453
a(I7587
g85
tp1454
a(I7594
g85
tp1455
a(I7596
g85
tp1456
a(I7597
g85
tp1457
a(I7599
g85
tp1458
a(I7631
g85
tp1459
a(I7632
g85
tp1460
a(I7633
g792
tp1461
a(I7634
g85
tp1462
a(I7635
g85
tp1463
a(I7638
g85
tp1464
a(I7640
g85
tp1465
a(I7642
g85
tp1466
a(I7643
g85
tp1467
a(I7644
g85
tp1468
a(I7651
g85
tp1469
a(I7652
g83
tp1470
a(I7654
g2
tp1471
a(I7669
g2
tp1472
a(I7675
S'3_augmented'
p1473
tp1474
a(I7676
g160
tp1475
a(I7677
g160
tp1476
a(I7679
g160
tp1477
a(I7680
g163
tp1478
a(I7681
g163
tp1479
a(I7682
g203
tp1480
a(I7683
g160
tp1481
a(I7684
g160
tp1482
a(I7692
g160
tp1483
a(I7693
g160
tp1484
a(I7694
g160
tp1485
a(I7720
g160
tp1486
a(I7727
g160
tp1487
a(I7728
g160
tp1488
a(I7730
g160
tp1489
a(I7732
g165
tp1490
a(I7733
g160
tp1491
a(I7736
g160
tp1492
a(I7737
g160
tp1493
a(I7775
g160
tp1494
a(I7776
g16
tp1495
a(I7777
g180
tp1496
a(I7778
g16
tp1497
a(I7779
g160
tp1498
a(I7782
g160
tp1499
a(I7786
g160
tp1500
a(I7788
g160
tp1501
a(I7792
g160
tp1502
a(I7823
g160
tp1503
a(I7824
g163
tp1504
a(I7825
g163
tp1505
a(I7826
g160
tp1506
a(I7827
g165
tp1507
a(I7828
g160
tp1508
a(I7834
g160
tp1509
a(I7835
g160
tp1510
a(I7836
g160
tp1511
a(I7837
g160
tp1512
a(I7839
g160
tp1513
a(I7842
g160
tp1514
a(I7870
g165
tp1515
a(I7871
g165
tp1516
a(I7872
g203
tp1517
a(I7873
g203
tp1518
a(I7874
g203
tp1519
a(I7875
g165
tp1520
a(I7885
g165
tp1521
a(I7887
g165
tp1522
a(I7903
g165
tp1523
a(I7913
g160
tp1524
a(I7917
g160
tp1525
a(I7918
g160
tp1526
a(I7923
g165
tp1527
a(I7924
g160
tp1528
a(I7936
g160
tp1529
a(I7947
g160
tp1530
a(I7950
g160
tp1531
a(I7966
g165
tp1532
a(I7967
g165
tp1533
a(I7968
g180
tp1534
a(I7969
g180
tp1535
a(I7970
g180
tp1536
a(I7971
g165
tp1537
a(I7976
g165
tp1538
a(I7978
g165
tp1539
a(I7980
g165
tp1540
a(I7982
g165
tp1541
a(I7988
g165
tp1542
a(I7993
g160
tp1543
a(I7997
g160
tp1544
a(I8013
g619
tp1545
a(I8014
g619
tp1546
a(I8015
g619
tp1547
a(I8016
g219
tp1548
a(I8017
g219
tp1549
a(I8018
g165
tp1550
a(I8019
g165
tp1551
a(I8020
g165
tp1552
a(I8021
g165
tp1553
a(I8024
g165
tp1554
a(I8025
g165
tp1555
a(I8027
g165
tp1556
a(I8028
g165
tp1557
a(I8063
g165
tp1558
a(I8064
g203
tp1559
a(I8065
g203
tp1560
a(I8066
g165
tp1561
a(I8067
g165
tp1562
a(I8076
g165
tp1563
a(I8077
g165
tp1564
a(I8078
g165
tp1565
a(I8079
g165
tp1566
a(I8088
g160
tp1567
a(I8091
g160
tp1568
a(I8110
g160
tp1569
a(I8111
g160
tp1570
a(I8112
g160
tp1571
a(I8113
g160
tp1572
a(I8115
g160
tp1573
a(I8116
g165
tp1574
a(I8117
g160
tp1575
a(I8119
g160
tp1576
a(I8122
g160
tp1577
a(I8160
g16
tp1578
a(I8161
g180
tp1579
a(I8162
g160
tp1580
a(I8166
g160
tp1581
a(I8169
g160
tp1582
a(I8170
g160
tp1583
a(I8171
g160
tp1584
a(I8172
g160
tp1585
a(I8206
g160
tp1586
a(I8207
g160
tp1587
a(I8208
g163
tp1588
a(I8209
g163
tp1589
a(I8210
g160
tp1590
a(I8211
g165
tp1591
a(I8212
g160
tp1592
a(I8220
g160
tp1593
a(I8222
g160
tp1594
a(I8223
g160
tp1595
a(I8224
g160
tp1596
a(I8228
g160
tp1597
a(I8254
g160
tp1598
a(I8255
g160
tp1599
a(I8256
g163
tp1600
a(I8257
g203
tp1601
a(I8258
g203
tp1602
a(I8259
g163
tp1603
a(I8260
g160
tp1604
a(I8267
g160
tp1605
a(I8268
g160
tp1606
a(I8269
g160
tp1607
a(I8270
g160
tp1608
a(I8302
g165
tp1609
a(I8304
g165
tp1610
a(I8306
g165
tp1611
a(I8307
g165
tp1612
a(I8308
g165
tp1613
a(I8310
g165
tp1614
a(I8311
g165
tp1615
a(I8312
g165
tp1616
a(I8350
g165
tp1617
a(I8351
g165
tp1618
a(I8352
g180
tp1619
a(I8353
g180
tp1620
a(I8354
g180
tp1621
a(I8355
g180
tp1622
a(I8356
g165
tp1623
a(I8363
g160
tp1624
a(I8364
g160
tp1625
a(I8365
g160
tp1626
a(I8368
g160
tp1627
a(I8388
g160
tp1628
a(I8400
g160
tp1629
a(I8401
g163
tp1630
a(I8402
g163
tp1631
a(I8403
g160
tp1632
a(I8408
g160
tp1633
a(I8409
g160
tp1634
a(I8411
g160
tp1635
a(I8413
g160
tp1636
a(I8415
g83
tp1637
a(I8418
g518
tp1638
a(I8430
g518
tp1639
a(I8440
g518
tp1640
a(I8444
g9
tp1641
a(I8445
g9
tp1642
a(I8446
g9
tp1643
a(I8447
g9
tp1644
a(I8448
g9
tp1645
a(I8449
g9
tp1646
a(I8450
g9
tp1647
a(I8451
g9
tp1648
a(I8452
g9
tp1649
a(I8459
g9
tp1650
a(I8460
g9
tp1651
a(I8461
g9
tp1652
a(I8496
g9
tp1653
a(I8497
g9
tp1654
a(I8498
g9
tp1655
a(I8499
g9
tp1656
a(I8500
g9
tp1657
a(I8501
g9
tp1658
a(I8503
g9
tp1659
a(I8504
g9
tp1660
a(I8505
g9
tp1661
a(I8543
g9
tp1662
a(I8544
g9
tp1663
a(I8545
g9
tp1664
a(I8546
g9
tp1665
a(I8551
g9
tp1666
a(I8555
g9
tp1667
a(I8556
g9
tp1668
a(I8558
g9
tp1669
a(I8559
g9
tp1670
a(I8578
g9
tp1671
a(I8581
g9
tp1672
a(I8591
g9
tp1673
a(I8592
g9
tp1674
a(I8593
g9
tp1675
a(I8594
g9
tp1676
a(I8596
g9
tp1677
a(I8597
g9
tp1678
a(I8603
g9
tp1679
a(I8604
g9
tp1680
a(I8606
g9
tp1681
a(I8607
g9
tp1682
a(I8608
g9
tp1683
a(I8638
g9
tp1684
a(I8639
g9
tp1685
a(I8640
g9
tp1686
a(I8641
g9
tp1687
a(I8642
g9
tp1688
a(I8643
g9
tp1689
a(I8644
g9
tp1690
a(I8650
g9
tp1691
a(I8653
g9
tp1692
a(I8654
g9
tp1693
a(I8657
g9
tp1694
a(I8688
g9
tp1695
a(I8691
g9
tp1696
a(I8692
g9
tp1697
a(I8693
g9
tp1698
a(I8694
g9
tp1699
a(I8695
g9
tp1700
a(I8697
g9
tp1701
a(I8698
g9
tp1702
a(I8704
g9
tp1703
a(I8735
g9
tp1704
a(I8736
g9
tp1705
a(I8737
g9
tp1706
a(I8738
g9
tp1707
a(I8739
g9
tp1708
a(I8751
g9
tp1709
a(I8753
g9
tp1710
a(I8754
g9
tp1711
a(I8784
g9
tp1712
a(I8785
g9
tp1713
a(I8786
g9
tp1714
a(I8787
g9
tp1715
a(I8788
g9
tp1716
a(I8789
g9
tp1717
a(I8791
g9
tp1718
a(I8792
g9
tp1719
a(I8793
g9
tp1720
a(I8794
g4
tp1721
a(I8795
g4
tp1722
a(I8809
g4
tp1723
a(I8810
g4
tp1724
a(I8819
g643
tp1725
a(I8827
g80
tp1726
a(I8828
g85
tp1727
a(I8829
g85
tp1728
a(I8831
g85
tp1729
a(I8832
g85
tp1730
a(I8834
g133
tp1731
a(I8835
g85
tp1732
a(I8836
g85
tp1733
a(I8845
g85
tp1734
a(I8846
g85
tp1735
a(I8848
g85
tp1736
a(I8878
g85
tp1737
a(I8881
g85
tp1738
a(I8882
g85
tp1739
a(I8883
g85
tp1740
a(I8884
g133
tp1741
a(I8885
g85
tp1742
a(I8886
g85
tp1743
a(I8888
g85
tp1744
a(I8927
g85
tp1745
a(I8928
g87
tp1746
a(I8929
g94
tp1747
a(I8930
g87
tp1748
a(I8931
g85
tp1749
a(I8933
g85
tp1750
a(I8939
g85
tp1751
a(I8940
g85
tp1752
a(I8944
g85
tp1753
a(I8972
g85
tp1754
a(I8973
g163
tp1755
a(I8974
g163
tp1756
a(I8975
g163
tp1757
a(I8976
g163
tp1758
a(I8977
g163
tp1759
a(I8978
g163
tp1760
a(I8979
g94
tp1761
a(I8980
g163
tp1762
a(I8983
g163
tp1763
a(I8984
g163
tp1764
a(I8987
g163
tp1765
a(I8988
g163
tp1766
a(I9022
g163
tp1767
a(I9023
g163
tp1768
a(I9024
g163
tp1769
a(I9025
g94
tp1770
a(I9026
g163
tp1771
a(I9027
g163
tp1772
a(I9036
g163
tp1773
a(I9039
g163
tp1774
a(I9052
g163
tp1775
a(I9072
g163
tp1776
a(I9075
g94
tp1777
a(I9076
g163
tp1778
a(I9094
g163
tp1779
a(I9097
g85
tp1780
a(I9117
g85
tp1781
a(I9119
g85
tp1782
a(I9120
g87
tp1783
a(I9121
g94
tp1784
a(I9122
g268
tp1785
a(I9123
g465
tp1786
a(I9132
g465
tp1787
a(I9134
g465
tp1788
a(I9135
g465
tp1789
a(I9136
g465
tp1790
a(I9141
g465
tp1791
a(I9162
g85
tp1792
a(I9168
g465
tp1793
a(I9169
g268
tp1794
a(I9170
g465
tp1795
a(I9171
g465
tp1796
a(I9176
g465
tp1797
a(I9177
g465
tp1798
a(I9179
g465
tp1799
a(I9188
g339
tp1800
a(I9189
g339
tp1801
a(I9196
g339
tp1802
a(I9204
g518
tp1803
a(I9212
g160
tp1804
a(I9213
g160
tp1805
a(I9215
g160
tp1806
a(I9216
g163
tp1807
a(I9217
g203
tp1808
a(I9218
g163
tp1809
a(I9219
g160
tp1810
a(I9229
g160
tp1811
a(I9230
g160
tp1812
a(I9231
g160
tp1813
a(I9233
g160
tp1814
a(I9262
g160
tp1815
a(I9263
g160
tp1816
a(I9264
g160
tp1817
a(I9265
g160
tp1818
a(I9266
g160
tp1819
a(I9267
g160
tp1820
a(I9268
g165
tp1821
a(I9269
g160
tp1822
a(I9271
g160
tp1823
a(I9272
g160
tp1824
a(I9274
g160
tp1825
a(I9311
g160
tp1826
a(I9312
g180
tp1827
a(I9313
g16
tp1828
a(I9314
g160
tp1829
a(I9320
g160
tp1830
a(I9322
g160
tp1831
a(I9325
g160
tp1832
a(I9326
g160
tp1833
a(I9328
g160
tp1834
a(I9329
g160
tp1835
a(I9332
g160
tp1836
a(I9344
g160
tp1837
a(I9345
g160
tp1838
a(I9357
g160
tp1839
a(I9358
g160
tp1840
a(I9359
g160
tp1841
a(I9360
g163
tp1842
a(I9362
g163
tp1843
a(I9363
g203
tp1844
a(I9364
g160
tp1845
a(I9372
g160
tp1846
a(I9373
g160
tp1847
a(I9374
g160
tp1848
a(I9376
g160
tp1849
a(I9383
g160
tp1850
a(I9389
g160
tp1851
a(I9404
g160
tp1852
a(I9405
g165
tp1853
a(I9406
g165
tp1854
a(I9407
g165
tp1855
a(I9408
g165
tp1856
a(I9410
g165
tp1857
a(I9418
g165
tp1858
a(I9435
g165
tp1859
a(I9446
g165
tp1860
a(I9447
g165
tp1861
a(I9453
g165
tp1862
a(I9454
g165
tp1863
a(I9455
g165
tp1864
a(I9456
g203
tp1865
a(I9458
g165
tp1866
a(I9459
g165
tp1867
a(I9460
g160
tp1868
a(I9467
g160
tp1869
a(I9468
g160
tp1870
a(I9471
g160
tp1871
a(I9473
g160
tp1872
a(I9482
g160
tp1873
a(I9484
g160
tp1874
a(I9500
g160
tp1875
a(I9501
g165
tp1876
a(I9502
g165
tp1877
a(I9503
g165
tp1878
a(I9504
g165
tp1879
a(I9505
g165
tp1880
a(I9506
g180
tp1881
a(I9507
g180
tp1882
a(I9508
g180
tp1883
a(I9509
g165
tp1884
a(I9511
g165
tp1885
a(I9512
g165
tp1886
a(I9513
g165
tp1887
a(I9515
g165
tp1888
a(I9549
g165
tp1889
a(I9550
g165
tp1890
a(I9551
g165
tp1891
a(I9552
g203
tp1892
a(I9553
g203
tp1893
a(I9555
g165
tp1894
a(I9556
g165
tp1895
a(I9557
g160
tp1896
a(I9560
g160
tp1897
a(I9561
g160
tp1898
a(I9562
g160
tp1899
a(I9566
g160
tp1900
a(I9569
g160
tp1901
a(I9581
g160
tp1902
a(I9596
g16
tp1903
a(I9597
g16
tp1904
a(I9598
g160
tp1905
a(I9599
g160
tp1906
a(I9600
g160
tp1907
a(I9601
g160
tp1908
a(I9602
g16
tp1909
a(I9604
g160
tp1910
a(I9613
g160
tp1911
a(I9616
g160
tp1912
a(I9618
g160
tp1913
a(I9642
g160
tp1914
a(I9644
g160
tp1915
a(I9646
g1473
tp1916
a(I9647
g518
tp1917
a(I9649
g518
tp1918
a(I9691
S'0_note'
p1919
tp1920
a(I9697
g1919
tp1921
a(I9792
g83
tp1922
a(I9888
g643
tp1923
a(I9889
g643
tp1924
a(I9890
g643
tp1925
a(I9979
g4
tp1926
a(I9980
g9
tp1927
a(I9981
g9
tp1928
a(I9982
g9
tp1929
a(I9983
g9
tp1930
a(I9984
g9
tp1931
a(I9985
g9
tp1932
a(I9986
g9
tp1933
a(I9987
g9
tp1934
a(I9988
g9
tp1935
a(I9989
g9
tp1936
a(I9991
g9
tp1937
a(I9992
g346
tp1938
a(I9993
g9
tp1939
a(I9996
g9
tp1940
a(I9997
g9
tp1941
a(I9999
g9
tp1942
a(I10031
g9
tp1943
a(I10033
g9
tp1944
a(I10035
g9
tp1945
a(I10036
g9
tp1946
a(I10037
g9
tp1947
a(I10038
g9
tp1948
a(I10040
g9
tp1949
a(I10071
g9
tp1950
a(I10079
g9
tp1951
a(I10080
g9
tp1952
a(I10081
g346
tp1953
a(I10082
g346
tp1954
a(I10083
g346
tp1955
a(I10085
g346
tp1956
a(I10089
g346
tp1957
a(I10091
g346
tp1958
a(I10092
g346
tp1959
a(I10094
g346
tp1960
a(I10101
g9
tp1961
a(I10105
g9
tp1962
a(I10114
g9
tp1963
a(I10127
g9
tp1964
a(I10128
g9
tp1965
a(I10131
g9
tp1966
a(I10132
g9
tp1967
a(I10133
g9
tp1968
a(I10137
g9
tp1969
a(I10138
g9
tp1970
a(I10139
g9
tp1971
a(I10141
g9
tp1972
a(I10161
g9
tp1973
a(I10163
g9
tp1974
a(I10173
g346
tp1975
a(I10174
g346
tp1976
a(I10175
g346
tp1977
a(I10176
g346
tp1978
a(I10177
g346
tp1979
a(I10179
g346
tp1980
a(I10186
g346
tp1981
a(I10188
g346
tp1982
a(I10189
g346
tp1983
a(I10203
g346
tp1984
a(I10206
g346
tp1985
a(I10222
g346
tp1986
a(I10224
g346
tp1987
a(I10226
g346
tp1988
a(I10227
g346
tp1989
a(I10228
g346
tp1990
a(I10230
g346
tp1991
a(I10232
g346
tp1992
a(I10233
g346
tp1993
a(I10240
g346
tp1994
a(I10254
g346
tp1995
a(I10271
g346
tp1996
a(I10272
g346
tp1997
a(I10273
g346
tp1998
a(I10274
g346
tp1999
a(I10275
g346
tp2000
a(I10282
g346
tp2001
a(I10284
g346
tp2002
a(I10285
g346
tp2003
a(I10287
g346
tp2004
a(I10290
g346
tp2005
a(I10292
g346
tp2006
a(I10320
g346
tp2007
a(I10321
g346
tp2008
a(I10322
g346
tp2009
a(I10324
g346
tp2010
a(I10328
g346
tp2011
a(I10330
g346
tp2012
a(I10336
g346
tp2013
a(I10345
g346
tp2014
a(I10346
g346
tp2015
a(I10348
g339
tp2016
a(I10349
g339
tp2017
a(I10351
g2
tp2018
a(I10364
g133
tp2019
a(I10365
g133
tp2020
a(I10366
g85
tp2021
a(I10367
g85
tp2022
a(I10368
g85
tp2023
a(I10369
g85
tp2024
a(I10370
g133
tp2025
a(I10371
g85
tp2026
a(I10372
g85
tp2027
a(I10373
g85
tp2028
a(I10374
g85
tp2029
a(I10375
g85
tp2030
a(I10378
g85
tp2031
a(I10379
g85
tp2032
a(I10380
g85
tp2033
a(I10416
g465
tp2034
a(I10420
g219
tp2035
a(I10421
g465
tp2036
a(I10447
g465
tp2037
a(I10464
g268
tp2038
a(I10465
g94
tp2039
a(I10466
g268
tp2040
a(I10467
g465
tp2041
a(I10472
g465
tp2042
a(I10473
g465
tp2043
a(I10476
g465
tp2044
a(I10479
g465
tp2045
a(I10489
g85
tp2046
a(I10510
g85
tp2047
a(I10511
g85
tp2048
a(I10512
g85
tp2049
a(I10513
g85
tp2050
a(I10515
g133
tp2051
a(I10516
g85
tp2052
a(I10520
g85
tp2053
a(I10522
g85
tp2054
a(I10523
g85
tp2055
a(I10524
g85
tp2056
a(I10526
g85
tp2057
a(I10528
g85
tp2058
a(I10538
g85
tp2059
a(I10557
g465
tp2060
a(I10558
g465
tp2061
a(I10559
g219
tp2062
a(I10560
g219
tp2063
a(I10561
g219
tp2064
a(I10562
g219
tp2065
a(I10563
g219
tp2066
a(I10571
g219
tp2067
a(I10572
g219
tp2068
a(I10574
g219
tp2069
a(I10585
g219
tp2070
a(I10587
g219
tp2071
a(I10606
g219
tp2072
a(I10608
g219
tp2073
a(I10610
g219
tp2074
a(I10611
g219
tp2075
a(I10612
g219
tp2076
a(I10616
g219
tp2077
a(I10618
g219
tp2078
a(I10619
g219
tp2079
a(I10621
g219
tp2080
a(I10639
g465
tp2081
a(I10648
g85
tp2082
a(I10653
g85
tp2083
a(I10655
g85
tp2084
a(I10656
g87
tp2085
a(I10657
g94
tp2086
a(I10658
g87
tp2087
a(I10659
g85
tp2088
a(I10668
g85
tp2089
a(I10669
g85
tp2090
a(I10670
g85
tp2091
a(I10672
g85
tp2092
a(I10690
g85
tp2093
a(I10696
g85
tp2094
a(I10702
g85
tp2095
a(I10703
g465
tp2096
a(I10704
g465
tp2097
a(I10705
g465
tp2098
a(I10706
g465
tp2099
a(I10707
g465
tp2100
a(I10708
g219
tp2101
a(I10709
g465
tp2102
a(I10711
g465
tp2103
a(I10712
g465
tp2104
a(I10715
g465
tp2105
a(I10716
g465
tp2106
a(I10726
g465
tp2107
a(I10727
g465
tp2108
a(I10728
g465
tp2109
a(I10729
g339
tp2110
a(I10744
g83
tp2111
a(I10747
g160
tp2112
a(I10748
g160
tp2113
a(I10749
g160
tp2114
a(I10751
g160
tp2115
a(I10752
g163
tp2116
a(I10753
g163
tp2117
a(I10754
g203
tp2118
a(I10755
g160
tp2119
a(I10765
g160
tp2120
a(I10766
g160
tp2121
a(I10767
g160
tp2122
a(I10768
g160
tp2123
a(I10776
g165
tp2124
a(I10777
g165
tp2125
a(I10799
g160
tp2126
a(I10800
g160
tp2127
a(I10801
g160
tp2128
a(I10802
g160
tp2129
a(I10803
g160
tp2130
a(I10804
g165
tp2131
a(I10805
g160
tp2132
a(I10806
g160
tp2133
a(I10847
g160
tp2134
a(I10848
g180
tp2135
a(I10849
g16
tp2136
a(I10850
g16
tp2137
a(I10851
g160
tp2138
a(I10857
g160
tp2139
a(I10858
g160
tp2140
a(I10859
g160
tp2141
a(I10860
g160
tp2142
a(I10862
g160
tp2143
a(I10884
g160
tp2144
a(I10895
g160
tp2145
a(I10896
g163
tp2146
a(I10897
g160
tp2147
a(I10899
g165
tp2148
a(I10900
g165
tp2149
a(I10901
g160
tp2150
a(I10904
g160
tp2151
a(I10905
g160
tp2152
a(I10906
g160
tp2153
a(I10910
g160
tp2154
a(I10942
g160
tp2155
a(I10943
g160
tp2156
a(I10944
g163
tp2157
a(I10945
g203
tp2158
a(I10946
g163
tp2159
a(I10947
g160
tp2160
a(I10953
g160
tp2161
a(I10954
g160
tp2162
a(I10955
g160
tp2163
a(I10982
g160
tp2164
a(I10990
g160
tp2165
a(I10996
g165
tp2166
a(I10997
g160
tp2167
a(I11038
g176
tp2168
a(I11039
g176
tp2169
a(I11040
g180
tp2170
a(I11041
g180
tp2171
a(I11042
g180
tp2172
a(I11043
g180
tp2173
a(I11044
g176
tp2174
a(I11051
g176
tp2175
a(I11052
g176
tp2176
a(I11053
g176
tp2177
a(I11054
g176
tp2178
a(I11055
g176
tp2179
a(I11086
g94
tp2180
a(I11087
g94
tp2181
a(I11088
g94
tp2182
a(I11089
g94
tp2183
a(I11090
g268
tp2184
a(I11091
g94
tp2185
a(I11092
g94
tp2186
a(I11095
g94
tp2187
a(I11096
g94
tp2188
a(I11097
g94
tp2189
a(I11098
g94
tp2190
a(I11099
g94
tp2191
a(I11110
g94
tp2192
a(I11114
g133
tp2193
a(I11116
g133
tp2194
a(I11117
g133
tp2195
a(I11128
g430
tp2196
a(I11131
g430
tp2197
a(I11132
g165
tp2198
a(I11133
g430
tp2199
a(I11134
g430
tp2200
a(I11135
g430
tp2201
a(I11136
g346
tp2202
a(I11137
g346
tp2203
a(I11138
g346
tp2204
a(I11139
g346
tp2205
a(I11140
g430
tp2206
a(I11141
g430
tp2207
a(I11142
g430
tp2208
a(I11143
g430
tp2209
a(I11150
g430
tp2210
a(I11151
g430
tp2211
a(I11169
g430
tp2212
a(I11185
g430
tp2213
a(I11186
g430
tp2214
a(I11188
g430
tp2215
a(I11189
g430
tp2216
a(I11191
g430
tp2217
a(I11192
g430
tp2218
a(I11193
g430
tp2219
a(I11232
g430
tp2220
a(I11233
g16
tp2221
a(I11234
g16
tp2222
a(I11235
g430
tp2223
a(I11241
g430
tp2224
a(I11244
g430
tp2225
a(I11246
g430
tp2226
a(I11265
g430
tp2227
a(I11278
g430
tp2228
a(I11279
g430
tp2229
a(I11280
g346
tp2230
a(I11282
g346
tp2231
a(I11283
g346
tp2232
a(I11284
g430
tp2233
a(I11285
g430
tp2234
a(I11286
g430
tp2235
a(I11288
g430
tp2236
a(I11289
g430
tp2237
a(I11291
g430
tp2238
a(I11292
g430
tp2239
a(I11327
g430
tp2240
a(I11328
g430
tp2241
a(I11329
g165
tp2242
a(I11330
g165
tp2243
a(I11331
g165
tp2244
a(I11339
g165
tp2245
a(I11342
g165
tp2246
a(I11366
g165
tp2247
a(I11367
g165
tp2248
a(I11371
g165
tp2249
a(I11373
g165
tp2250
a(I11375
g165
tp2251
a(I11376
g203
tp2252
a(I11377
g203
tp2253
a(I11378
g203
tp2254
a(I11379
g165
tp2255
a(I11380
g165
tp2256
a(I11383
g165
tp2257
a(I11384
g165
tp2258
a(I11385
g165
tp2259
a(I11386
g165
tp2260
a(I11409
g165
tp2261
a(I11414
g165
tp2262
a(I11418
g430
tp2263
a(I11423
g430
tp2264
a(I11424
g430
tp2265
a(I11425
g16
tp2266
a(I11426
g16
tp2267
a(I11427
g16
tp2268
a(I11428
g430
tp2269
a(I11436
g430
tp2270
a(I11437
g430
tp2271
a(I11438
g430
tp2272
a(I11473
g430
tp2273
a(I11474
g346
tp2274
a(I11475
g430
tp2275
a(I11477
g430
tp2276
a(I11478
g430
tp2277
a(I11480
g430
tp2278
a(I11481
g430
tp2279
a(I11488
g430
tp2280
a(I11491
g430
tp2281
a(I11492
g430
tp2282
a(I11494
g1919
tp2283
a(I11495
g1919
tp2284
a(I11506
g1919
tp2285
a(I11507
g1919
tp2286
a(I11513
g1919
tp2287
a(I11515
g9
tp2288
a(I11516
g16
tp2289
a(I11517
g16
tp2290
a(I11518
g16
tp2291
a(I11519
g9
tp2292
a(I11520
g9
tp2293
a(I11521
g9
tp2294
a(I11522
g9
tp2295
a(I11523
g9
tp2296
a(I11524
g9
tp2297
a(I11525
g9
tp2298
a(I11526
g9
tp2299
a(I11529
g9
tp2300
a(I11530
g9
tp2301
a(I11531
g9
tp2302
a(I11568
g9
tp2303
a(I11569
g9
tp2304
a(I11570
g9
tp2305
a(I11571
g9
tp2306
a(I11572
g9
tp2307
a(I11573
g9
tp2308
a(I11574
g9
tp2309
a(I11575
g9
tp2310
a(I11576
g9
tp2311
a(I11577
g9
tp2312
a(I11597
g9
tp2313
a(I11615
g9
tp2314
a(I11616
g9
tp2315
a(I11617
g346
tp2316
a(I11618
g346
tp2317
a(I11619
g346
tp2318
a(I11623
g346
tp2319
a(I11624
g346
tp2320
a(I11626
g346
tp2321
a(I11627
g346
tp2322
a(I11629
g346
tp2323
a(I11639
g9
tp2324
a(I11662
g9
tp2325
a(I11663
g9
tp2326
a(I11664
g9
tp2327
a(I11665
g9
tp2328
a(I11666
g9
tp2329
a(I11667
g9
tp2330
a(I11668
g9
tp2331
a(I11673
g9
tp2332
a(I11674
g9
tp2333
a(I11675
g9
tp2334
a(I11677
g9
tp2335
a(I11679
g9
tp2336
a(I11688
g9
tp2337
a(I11695
g9
tp2338
a(I11709
g346
tp2339
a(I11710
g346
tp2340
a(I11711
g346
tp2341
a(I11712
g346
tp2342
a(I11713
g346
tp2343
a(I11715
g346
tp2344
a(I11724
g346
tp2345
a(I11725
g346
tp2346
a(I11726
g346
tp2347
a(I11727
g346
tp2348
a(I11763
g346
tp2349
a(I11764
g346
tp2350
a(I11791
g346
tp2351
a(I11808
g346
tp2352
a(I11809
g346
tp2353
a(I11810
g346
tp2354
a(I11811
g346
tp2355
a(I11814
g346
tp2356
a(I11818
g346
tp2357
a(I11819
g346
tp2358
a(I11820
g346
tp2359
a(I11821
g346
tp2360
a(I11822
g346
tp2361
a(I11834
g346
tp2362
a(I11856
g346
tp2363
a(I11857
g346
tp2364
a(I11858
g346
tp2365
a(I11859
g346
tp2366
a(I11860
g346
tp2367
a(I11861
g346
tp2368
a(I11862
g346
tp2369
a(I11864
g346
tp2370
a(I11866
g346
tp2371
a(I11867
g346
tp2372
a(I11874
g346
tp2373
a(I11878
g346
tp2374
a(I11879
g346
tp2375
a(I11881
g346
tp2376
a(I11882
g346
tp2377
a(I11889
g339
tp2378
a(I11892
g4
tp2379
a(I11899
g714
tp2380
a(I11900
g87
tp2381
a(I11901
g87
tp2382
a(I11902
g87
tp2383
a(I11903
g87
tp2384
a(I11904
g87
tp2385
a(I11905
g87
tp2386
a(I11906
g94
tp2387
a(I11907
g87
tp2388
a(I11908
g87
tp2389
a(I11909
g87
tp2390
a(I11910
g85
tp2391
a(I11918
g85
tp2392
a(I11919
g85
tp2393
a(I11920
g85
tp2394
a(I11952
g85
tp2395
a(I11953
g85
tp2396
a(I11954
g85
tp2397
a(I11956
g133
tp2398
a(I11957
g85
tp2399
a(I11958
g85
tp2400
a(I11959
g85
tp2401
a(I11961
g85
tp2402
a(I11962
g85
tp2403
a(I11985
g85
tp2404
a(I11999
g85
tp2405
a(I12000
g94
tp2406
a(I12001
g94
tp2407
a(I12002
g94
tp2408
a(I12003
g268
tp2409
a(I12004
g465
tp2410
a(I12006
g465
tp2411
a(I12008
g465
tp2412
a(I12009
g465
tp2413
a(I12010
g465
tp2414
a(I12012
g465
tp2415
a(I12026
g85
tp2416
a(I12046
g85
tp2417
a(I12047
g85
tp2418
a(I12048
g85
tp2419
a(I12049
g85
tp2420
a(I12050
g85
tp2421
a(I12051
g85
tp2422
a(I12052
g133
tp2423
a(I12053
g85
tp2424
a(I12058
g85
tp2425
a(I12059
g85
tp2426
a(I12060
g85
tp2427
a(I12061
g85
tp2428
a(I12063
g85
tp2429
a(I12086
g85
tp2430
a(I12087
g85
tp2431
a(I12093
g465
tp2432
a(I12094
g465
tp2433
a(I12095
g465
tp2434
a(I12096
g465
tp2435
a(I12097
g219
tp2436
a(I12098
g465
tp2437
a(I12099
g465
tp2438
a(I12108
g465
tp2439
a(I12109
g465
tp2440
a(I12110
g465
tp2441
a(I12112
g465
tp2442
a(I12114
g465
tp2443
a(I12120
g465
tp2444
a(I12121
g465
tp2445
a(I12141
g465
tp2446
a(I12144
g465
tp2447
a(I12146
g465
tp2448
a(I12147
g219
tp2449
a(I12148
g465
tp2450
a(I12152
g465
tp2451
a(I12153
g465
tp2452
a(I12155
g465
tp2453
a(I12170
g465
tp2454
a(I12187
g85
tp2455
a(I12189
g85
tp2456
a(I12190
g85
tp2457
a(I12192
g87
tp2458
a(I12193
g94
tp2459
a(I12194
g268
tp2460
a(I12195
g465
tp2461
a(I12203
g465
tp2462
a(I12204
g465
tp2463
a(I12205
g465
tp2464
a(I12206
g465
tp2465
a(I12208
g465
tp2466
a(I12210
g465
tp2467
a(I12211
g465
tp2468
a(I12220
g85
tp2469
a(I12239
g85
tp2470
a(I12240
g85
tp2471
a(I12241
g465
tp2472
a(I12242
g268
tp2473
a(I12243
g465
tp2474
a(I12244
g465
tp2475
a(I12246
g465
tp2476
a(I12247
g465
tp2477
a(I12248
g465
tp2478
a(I12250
g465
tp2479
a(I12252
g465
tp2480
a(I12264
g465
tp2481
a(I12265
g465
tp2482
a(I12266
g465
tp2483
a(I12276
g465
tp2484
a(I12278
g465
tp2485
a(I12283
g465
tp2486
a(I12284
g268
tp2487
a(I12285
g268
tp2488
a(I12287
g268
tp2489
a(I12288
g268
tp2490
a(I12289
g268
tp2491
a(I12290
g268
tp2492
a(I12291
g268
tp2493
a(I12292
g176
tp2494
a(I12293
g160
tp2495
a(I12294
g160
tp2496
a(I12301
g160
tp2497
a(I12303
g160
tp2498
a(I12304
g160
tp2499
a(I12336
g160
tp2500
a(I12337
g160
tp2501
a(I12338
g160
tp2502
a(I12339
g160
tp2503
a(I12340
g165
tp2504
a(I12341
g160
tp2505
a(I12342
g160
tp2506
a(I12344
g160
tp2507
a(I12352
g160
tp2508
a(I12362
g160
tp2509
a(I12383
g160
tp2510
a(I12384
g180
tp2511
a(I12385
g16
tp2512
a(I12386
g16
tp2513
a(I12387
g160
tp2514
a(I12391
g160
tp2515
a(I12392
g160
tp2516
a(I12393
g160
tp2517
a(I12394
g160
tp2518
a(I12395
g160
tp2519
a(I12430
g160
tp2520
a(I12431
g160
tp2521
a(I12432
g163
tp2522
a(I12433
g160
tp2523
a(I12435
g165
tp2524
a(I12436
g160
tp2525
a(I12441
g160
tp2526
a(I12444
g160
tp2527
a(I12445
g160
tp2528
a(I12449
g160
tp2529
a(I12468
g160
tp2530
a(I12478
g160
tp2531
a(I12479
g160
tp2532
a(I12480
g163
tp2533
a(I12481
g203
tp2534
a(I12482
g160
tp2535
a(I12489
g160
tp2536
a(I12491
g160
tp2537
a(I12492
g160
tp2538
a(I12531
g165
tp2539
a(I12532
g160
tp2540
a(I12544
g160
tp2541
a(I12574
g160
tp2542
a(I12575
g160
tp2543
a(I12576
g16
tp2544
a(I12577
g180
tp2545
a(I12578
g16
tp2546
a(I12579
g160
tp2547
a(I12586
g160
tp2548
a(I12588
g160
tp2549
a(I12589
g160
tp2550
a(I12590
g160
tp2551
a(I12591
g160
tp2552
a(I12619
g160
tp2553
a(I12623
g165
tp2554
a(I12624
g165
tp2555
a(I12625
g165
tp2556
a(I12627
g165
tp2557
a(I12628
g165
tp2558
a(I12629
g165
tp2559
a(I12631
g165
tp2560
a(I12632
g165
tp2561
a(I12633
g165
tp2562
a(I12634
g165
tp2563
a(I12636
g165
tp2564
a(I12644
g165
tp2565
a(I12647
g165
tp2566
a(I12649
g430
tp2567
a(I12653
g430
tp2568
a(I12667
g165
tp2569
a(I12668
g165
tp2570
a(I12669
g165
tp2571
a(I12670
g165
tp2572
a(I12671
g165
tp2573
a(I12672
g203
tp2574
a(I12673
g203
tp2575
a(I12674
g165
tp2576
a(I12675
g430
tp2577
a(I12676
g430
tp2578
a(I12677
g430
tp2579
a(I12681
g430
tp2580
a(I12682
g430
tp2581
a(I12683
g430
tp2582
a(I12721
g430
tp2583
a(I12722
g430
tp2584
a(I12723
g430
tp2585
a(I12724
g430
tp2586
a(I12725
g430
tp2587
a(I12726
g430
tp2588
a(I12727
g430
tp2589
a(I12728
g430
tp2590
a(I12768
g430
tp2591
a(I12769
g16
tp2592
a(I12770
g16
tp2593
a(I12771
g16
tp2594
a(I12776
g16
tp2595
a(I12779
g16
tp2596
a(I12780
g16
tp2597
a(I12812
g16
tp2598
a(I12815
g16
tp2599
a(I12816
g266
tp2600
a(I12817
g266
tp2601
a(I12819
g266
tp2602
a(I12820
g16
tp2603
a(I12821
g16
tp2604
a(I12823
g16
tp2605
a(I12825
g16
tp2606
a(I12826
g16
tp2607
a(I12827
g16
tp2608
a(I12829
g430
tp2609
a(I12841
g430
tp2610
a(I12861
g165
tp2611
a(I12863
g165
tp2612
a(I12864
g165
tp2613
a(I12865
g165
tp2614
a(I12866
g165
tp2615
a(I12870
g165
tp2616
a(I12876
g165
tp2617
a(I12879
g165
tp2618
a(I12897
g165
tp2619
a(I12898
g430
tp2620
a(I12907
g430
tp2621
a(I12909
g430
tp2622
a(I12910
g430
tp2623
a(I12911
S'0_diminished_seventh'
tp2624
a(I12912
S'6_dominant_ninth'
p2625
tp2626
a(I12915
g2625
tp2627
a(I12916
g2625
tp2628
a(I12917
g2625
tp2629
a(I12920
g2625
tp2630
a(I12925
g2625
tp2631
a(I12946
g346
tp2632
a(I12948
g346
tp2633
a(I12949
g346
tp2634
a(I12952
g346
tp2635
a(I12957
g346
tp2636
a(I12959
g203
tp2637
a(I12960
g165
tp2638
a(I12961
g165
tp2639
a(I12962
g165
tp2640
a(I12963
g180
tp2641
a(I12964
g180
tp2642
a(I12965
g165
tp2643
a(I12969
g165
tp2644
a(I12970
g165
tp2645
a(I12971
g165
tp2646
a(I13008
g203
tp2647
a(I13009
g203
tp2648
a(I13010
g203
tp2649
a(I13011
g203
tp2650
a(I13012
g165
tp2651
a(I13018
g165
tp2652
a(I13019
g165
tp2653
a(I13025
g165
tp2654
a(I13027
g165
tp2655
a(I13028
g165
tp2656
a(I13029
g165
tp2657
a(I13032
g165
tp2658
a(I13041
g160
tp2659
a(I13047
g1473
tp2660
a(I13051
g16
tp2661
a(I13052
g266
tp2662
a(I13053
g266
tp2663
a(I13054
g266
tp2664
a(I13055
g266
tp2665
a(I13056
g266
tp2666
a(I13057
g266
tp2667
a(I13058
g266
tp2668
a(I13059
g266
tp2669
a(I13060
g16
tp2670
a(I13061
g16
tp2671
a(I13062
g16
tp2672
a(I13063
g9
tp2673
a(I13067
g9
tp2674
a(I13068
g9
tp2675
a(I13069
g9
tp2676
a(I13108
g9
tp2677
a(I13111
g9
tp2678
a(I13126
g9
tp2679
a(I13151
g9
tp2680
a(I13152
g9
tp2681
a(I13153
g9
tp2682
a(I13154
g9
tp2683
a(I13155
g9
tp2684
a(I13160
g9
tp2685
a(I13164
g9
tp2686
a(I13166
g9
tp2687
a(I13167
g9
tp2688
a(I13168
g9
tp2689
a(I13186
g9
tp2690
a(I13199
g9
tp2691
a(I13200
g9
tp2692
a(I13201
g9
tp2693
a(I13202
g9
tp2694
a(I13204
g9
tp2695
a(I13205
g9
tp2696
a(I13207
g9
tp2697
a(I13208
g9
tp2698
a(I13209
g9
tp2699
a(I13211
g9
tp2700
a(I13214
g9
tp2701
a(I13229
g9
tp2702
a(I13231
g9
tp2703
a(I13245
g346
tp2704
a(I13246
g346
tp2705
a(I13247
g346
tp2706
a(I13248
g346
tp2707
a(I13249
g346
tp2708
a(I13250
g346
tp2709
a(I13251
g346
tp2710
a(I13257
g346
tp2711
a(I13258
g346
tp2712
a(I13260
g346
tp2713
a(I13295
g346
tp2714
a(I13296
g346
tp2715
a(I13297
g346
tp2716
a(I13299
g346
tp2717
a(I13300
g346
tp2718
a(I13301
g346
tp2719
a(I13302
g346
tp2720
a(I13304
g346
tp2721
a(I13307
g346
tp2722
a(I13313
g346
tp2723
a(I13324
g346
tp2724
a(I13343
g346
tp2725
a(I13344
g346
tp2726
a(I13345
g346
tp2727
a(I13346
g346
tp2728
a(I13353
g346
tp2729
a(I13354
g346
tp2730
a(I13356
g346
tp2731
a(I13358
g346
tp2732
a(I13370
g346
tp2733
a(I13386
g346
tp2734
a(I13390
g346
tp2735
a(I13391
g346
tp2736
a(I13392
g346
tp2737
a(I13393
g346
tp2738
a(I13394
g346
tp2739
a(I13395
g346
tp2740
a(I13396
g346
tp2741
a(I13400
g346
tp2742
a(I13401
g346
tp2743
a(I13402
g346
tp2744
a(I13405
g346
tp2745
a(I13412
g346
tp2746
a(I13413
g346
tp2747
a(I13416
g9
tp2748
a(I13417
g9
tp2749
a(I13418
g9
tp2750
a(I13421
g2
tp2751
a(I13423
g2
tp2752
a(I13427
g2
tp2753
a(I13435
g80
tp2754
a(I13436
g133
tp2755
a(I13437
g133
tp2756
a(I13438
g133
tp2757
a(I13439
g133
tp2758
a(I13440
g85
tp2759
a(I13441
g133
tp2760
a(I13442
g133
tp2761
a(I13443
g133
tp2762
a(I13444
g85
tp2763
a(I13445
g85
tp2764
a(I13448
g85
tp2765
a(I13452
g85
tp2766
a(I13453
g85
tp2767
a(I13456
g85
tp2768
a(I13466
g85
tp2769
a(I13488
g163
tp2770
a(I13489
g163
tp2771
a(I13490
g163
tp2772
a(I13491
g163
tp2773
a(I13492
g94
tp2774
a(I13493
g163
tp2775
a(I13494
g163
tp2776
a(I13496
g163
tp2777
a(I13498
g163
tp2778
a(I13499
g163
tp2779
a(I13530
g163
tp2780
a(I13535
g163
tp2781
a(I13536
g94
tp2782
a(I13537
g1419
tp2783
a(I13538
g163
tp2784
a(I13543
g163
tp2785
a(I13544
g163
tp2786
a(I13546
g163
tp2787
a(I13547
g163
tp2788
a(I13548
g163
tp2789
a(I13582
g163
tp2790
a(I13583
g163
tp2791
a(I13584
g163
tp2792
a(I13586
g163
tp2793
a(I13587
g94
tp2794
a(I13588
g94
tp2795
a(I13589
g163
tp2796
a(I13594
g163
tp2797
a(I13595
g163
tp2798
a(I13596
g163
tp2799
a(I13597
g163
tp2800
a(I13598
g163
tp2801
a(I13606
g163
tp2802
a(I13619
g85
tp2803
a(I13628
g85
tp2804
a(I13629
g465
tp2805
a(I13630
g465
tp2806
a(I13631
g465
tp2807
a(I13632
g465
tp2808
a(I13633
g219
tp2809
a(I13634
g219
tp2810
a(I13635
g219
tp2811
a(I13636
g465
tp2812
a(I13637
g465
tp2813
a(I13640
g465
tp2814
a(I13641
g465
tp2815
a(I13643
g465
tp2816
a(I13644
g465
tp2817
a(I13668
g465
tp2818
a(I13678
g465
tp2819
a(I13680
g465
tp2820
a(I13682
g465
tp2821
a(I13683
g219
tp2822
a(I13684
g465
tp2823
a(I13686
g465
tp2824
a(I13688
g465
tp2825
a(I13689
g465
tp2826
a(I13713
g465
tp2827
a(I13719
g465
tp2828
a(I13720
g85
tp2829
a(I13725
g85
tp2830
a(I13726
g85
tp2831
a(I13728
g94
tp2832
a(I13729
g87
tp2833
a(I13730
g85
tp2834
a(I13734
g85
tp2835
a(I13738
g85
tp2836
a(I13740
g85
tp2837
a(I13741
g85
tp2838
a(I13744
g85
tp2839
a(I13775
g465
tp2840
a(I13776
g465
tp2841
a(I13777
g465
tp2842
a(I13778
g465
tp2843
a(I13780
g219
tp2844
a(I13781
g465
tp2845
a(I13784
g465
tp2846
a(I13785
g465
tp2847
a(I13787
g465
tp2848
a(I13792
g465
tp2849
a(I13802
g465
tp2850
a(I13804
g465
tp2851
a(I13809
g339
tp2852
a(I13813
g339
tp2853
a(I13814
g83
tp2854
a(I13819
g160
tp2855
a(I13820
g160
tp2856
a(I13821
g160
tp2857
a(I13823
g160
tp2858
a(I13824
g163
tp2859
a(I13825
g163
tp2860
a(I13826
g203
tp2861
a(I13827
g160
tp2862
a(I13828
g160
tp2863
a(I13833
g160
tp2864
a(I13835
g160
tp2865
a(I13836
g160
tp2866
a(I13839
g160
tp2867
a(I13845
g160
tp2868
a(I13870
g634
tp2869
a(I13871
g634
tp2870
a(I13872
g634
tp2871
a(I13873
g634
tp2872
a(I13874
g634
tp2873
a(I13875
g634
tp2874
a(I13876
g424
tp2875
a(I13877
g634
tp2876
a(I13878
g634
tp2877
a(I13880
g634
tp2878
a(I13881
g160
tp2879
a(I13892
g160
tp2880
a(I13919
g160
tp2881
a(I13920
g16
tp2882
a(I13921
g180
tp2883
a(I13922
g16
tp2884
a(I13923
g160
tp2885
a(I13927
g160
tp2886
a(I13929
g160
tp2887
a(I13930
g160
tp2888
a(I13931
g160
tp2889
a(I13933
g160
tp2890
a(I13966
g160
tp2891
a(I13967
g160
tp2892
a(I13968
g163
tp2893
a(I13969
g160
tp2894
a(I13971
g165
tp2895
a(I13972
g160
tp2896
a(I13976
g160
tp2897
a(I13977
g160
tp2898
a(I13978
g160
tp2899
a(I13979
g160
tp2900
a(I13980
g160
tp2901
a(I13984
g160
tp2902
a(I14012
g160
tp2903
a(I14014
g160
tp2904
a(I14015
g160
tp2905
a(I14016
g163
tp2906
a(I14017
g203
tp2907
a(I14018
g163
tp2908
a(I14019
g160
tp2909
a(I14028
g160
tp2910
a(I14030
g160
tp2911
a(I14055
g160
tp2912
a(I14062
g160
tp2913
a(I14067
g165
tp2914
a(I14068
g160
tp2915
a(I14094
g160
tp2916
a(I14108
g160
tp2917
a(I14110
g160
tp2918
a(I14111
g160
tp2919
a(I14112
g16
tp2920
a(I14113
g180
tp2921
a(I14114
g16
tp2922
a(I14115
g160
tp2923
a(I14124
g160
tp2924
a(I14127
g160
tp2925
a(I14132
g160
tp2926
a(I14137
g160
tp2927
a(I14160
g165
tp2928
a(I14161
g597
tp2929
a(I14162
g165
tp2930
a(I14164
g165
tp2931
a(I14167
g165
tp2932
a(I14169
g165
tp2933
a(I14177
g165
tp2934
a(I14180
g165
tp2935
a(I14182
g165
tp2936
a(I14183
g165
tp2937
a(I14185
g165
tp2938
a(I14200
g165
tp2939
a(I14203
g165
tp2940
a(I14204
g165
tp2941
a(I14205
g165
tp2942
a(I14207
g165
tp2943
a(I14208
g203
tp2944
a(I14209
g203
tp2945
a(I14210
g203
tp2946
a(I14211
g165
tp2947
a(I14212
g165
tp2948
a(I14213
g165
tp2949
a(I14215
g430
tp2950
a(I14218
g430
tp2951
a(I14219
g430
tp2952
a(I14220
g430
tp2953
a(I14223
g430
tp2954
a(I14224
g430
tp2955
a(I14256
g165
tp2956
a(I14257
g165
tp2957
a(I14258
g165
tp2958
a(I14259
g165
tp2959
a(I14260
g165
tp2960
a(I14261
g165
tp2961
a(I14262
g165
tp2962
a(I14263
g165
tp2963
a(I14264
g165
tp2964
a(I14303
g165
tp2965
a(I14304
g165
tp2966
a(I14305
g180
tp2967
a(I14306
g180
tp2968
a(I14307
g180
tp2969
a(I14308
g165
tp2970
a(I14311
g165
tp2971
a(I14315
g165
tp2972
a(I14318
g165
tp2973
a(I14319
g165
tp2974
a(I14340
g165
tp2975
a(I14349
g165
tp2976
a(I14350
g165
tp2977
a(I14351
g165
tp2978
a(I14352
g203
tp2979
a(I14355
g203
tp2980
a(I14356
g165
tp2981
a(I14357
g165
tp2982
a(I14358
g165
tp2983
a(I14362
g165
tp2984
a(I14363
g165
tp2985
a(I14364
g165
tp2986
a(I14372
g165
tp2987
a(I14397
g165
tp2988
a(I14399
g165
tp2989
a(I14400
g203
tp2990
a(I14402
g203
tp2991
a(I14403
g165
tp2992
a(I14404
g165
tp2993
a(I14409
g165
tp2994
a(I14412
g165
tp2995
a(I14413
g165
tp2996
a(I14444
g430
tp2997
a(I14445
g430
tp2998
a(I14446
g430
tp2999
a(I14451
g430
tp3000
a(I14452
g430
tp3001
a(I14453
g430
tp3002
a(I14456
g430
tp3003
a(I14458
g430
tp3004
a(I14476
g430
tp3005
a(I14478
g430
tp3006
a(I14483
g430
tp3007
a(I14484
g430
tp3008
a(I14493
g430
tp3009
a(I14494
g430
tp3010
a(I14495
g165
tp3011
a(I14497
g165
tp3012
a(I14498
g180
tp3013
a(I14499
g180
tp3014
a(I14500
g165
tp3015
a(I14501
g165
tp3016
a(I14502
g165
tp3017
a(I14506
g165
tp3018
a(I14507
g165
tp3019
a(I14508
g165
tp3020
a(I14510
g165
tp3021
a(I14536
g165
tp3022
a(I14542
g165
tp3023
a(I14544
g203
tp3024
a(I14545
g203
tp3025
a(I14546
g203
tp3026
a(I14547
g203
tp3027
a(I14548
g203
tp3028
a(I14549
g203
tp3029
a(I14555
g203
tp3030
a(I14556
g203
tp3031
a(I14557
g203
tp3032
a(I14560
g203
tp3033
a(I14562
g203
tp3034
a(I14563
g203
tp3035
a(I14564
g203
tp3036
a(I14565
g203
tp3037
a(I14572
g203
tp3038
a(I14573
g163
tp3039
a(I14580
g339
tp3040
a(I14581
g339
tp3041
a(I14585
g2
tp3042
a(I14587
g9
tp3043
a(I14588
g16
tp3044
a(I14589
g16
tp3045
a(I14590
g16
tp3046
a(I14591
g16
tp3047
a(I14592
g16
tp3048
a(I14593
g16
tp3049
a(I14594
g16
tp3050
a(I14595
g16
tp3051
a(I14596
g16
tp3052
a(I14597
g16
tp3053
a(I14598
g16
tp3054
a(I14599
g16
tp3055
a(I14601
g16
tp3056
a(I14603
g9
tp3057
a(I14604
g9
tp3058
a(I14640
g9
tp3059
a(I14641
g9
tp3060
a(I14642
g9
tp3061
a(I14644
g9
tp3062
a(I14645
g9
tp3063
a(I14646
g9
tp3064
a(I14647
g9
tp3065
a(I14648
g9
tp3066
a(I14675
g9
tp3067
a(I14687
g9
tp3068
a(I14688
g9
tp3069
a(I14689
g9
tp3070
a(I14690
g9
tp3071
a(I14691
g9
tp3072
a(I14695
g9
tp3073
a(I14697
g9
tp3074
a(I14698
g9
tp3075
a(I14700
g9
tp3076
a(I14701
g9
tp3077
a(I14734
g9
tp3078
a(I14735
g9
tp3079
a(I14736
g9
tp3080
a(I14737
g9
tp3081
a(I14738
g9
tp3082
a(I14740
g9
tp3083
a(I14741
g9
tp3084
a(I14745
g9
tp3085
a(I14747
g9
tp3086
a(I14751
g9
tp3087
a(I14753
g9
tp3088
a(I14758
g9
tp3089
a(I14783
g9
tp3090
a(I14784
g9
tp3091
a(I14785
g9
tp3092
a(I14786
g9
tp3093
a(I14787
g9
tp3094
a(I14793
g9
tp3095
a(I14796
g9
tp3096
a(I14797
g9
tp3097
a(I14799
g9
tp3098
a(I14826
g9
tp3099
a(I14830
g9
tp3100
a(I14832
g9
tp3101
a(I14835
g9
tp3102
a(I14836
g9
tp3103
a(I14837
g9
tp3104
a(I14839
g9
tp3105
a(I14840
g9
tp3106
a(I14842
g9
tp3107
a(I14849
g9
tp3108
a(I14864
g9
tp3109
a(I14878
g9
tp3110
a(I14879
g9
tp3111
a(I14880
g9
tp3112
a(I14881
g9
tp3113
a(I14883
g9
tp3114
a(I14884
g9
tp3115
a(I14891
g9
tp3116
a(I14892
g9
tp3117
a(I14893
g9
tp3118
a(I14895
g9
tp3119
a(I14897
g9
tp3120
a(I14926
g71
tp3121
a(I14928
g71
tp3122
a(I14929
g74
tp3123
a(I14930
g71
tp3124
a(I14931
g71
tp3125
a(I14935
g71
tp3126
a(I14936
g71
tp3127
a(I14937
g71
tp3128
a(I14938
g71
tp3129
a(I14939
g71
tp3130
a(I14952
g71
tp3131
a(I14953
g71
tp3132
a(I14954
g71
tp3133
a(I14955
g71
tp3134
a(I14956
g80
tp3135
a(I14957
g83
tp3136
a(I14967
g83
tp3137
a(I14972
g85
tp3138
a(I14973
g85
tp3139
a(I14974
g85
tp3140
a(I14975
g85
tp3141
a(I14976
g85
tp3142
a(I14977
g85
tp3143
a(I14978
g133
tp3144
a(I14979
g85
tp3145
a(I14980
g85
tp3146
a(I14981
g85
tp3147
a(I14982
g85
tp3148
a(I14983
g85
tp3149
a(I14990
g85
tp3150
a(I14991
g85
tp3151
a(I15025
g85
tp3152
a(I15028
g133
tp3153
a(I15029
g85
tp3154
a(I15070
g85
tp3155
a(I15071
g85
tp3156
a(I15072
g94
tp3157
a(I15073
g87
tp3158
a(I15074
g85
tp3159
a(I15078
g85
tp3160
a(I15081
g85
tp3161
a(I15083
g85
tp3162
a(I15084
g85
tp3163
a(I15086
g85
tp3164
a(I15100
g85
tp3165
a(I15117
g85
tp3166
a(I15118
g465
tp3167
a(I15119
g465
tp3168
a(I15120
g465
tp3169
a(I15121
g465
tp3170
a(I15122
g465
tp3171
a(I15123
g465
tp3172
a(I15124
g219
tp3173
a(I15125
g465
tp3174
a(I15128
g465
tp3175
a(I15130
g465
tp3176
a(I15131
g465
tp3177
a(I15132
g465
tp3178
a(I15167
g465
tp3179
a(I15168
g219
tp3180
a(I15169
g219
tp3181
a(I15170
g465
tp3182
a(I15178
g465
tp3183
a(I15179
g465
tp3184
a(I15180
g465
tp3185
a(I15181
g465
tp3186
a(I15196
g465
tp3187
a(I15199
g465
tp3188
a(I15213
g465
tp3189
a(I15214
g465
tp3190
a(I15215
g85
tp3191
a(I15216
g85
tp3192
a(I15219
g85
tp3193
a(I15220
g133
tp3194
a(I15221
g85
tp3195
a(I15223
g85
tp3196
a(I15224
g85
tp3197
a(I15225
g85
tp3198
a(I15226
g85
tp3199
a(I15232
g85
tp3200
a(I15251
g85
tp3201
a(I15256
g85
tp3202
a(I15263
g133
tp3203
a(I15264
g94
tp3204
a(I15265
g94
tp3205
a(I15266
g94
tp3206
a(I15267
g219
tp3207
a(I15274
g219
tp3208
a(I15276
g219
tp3209
a(I15278
g219
tp3210
a(I15303
g133
tp3211
a(I15312
g219
tp3212
a(I15313
g219
tp3213
a(I15314
g219
tp3214
a(I15315
g219
tp3215
a(I15316
g219
tp3216
a(I15317
g219
tp3217
a(I15322
g219
tp3218
a(I15325
g219
tp3219
a(I15326
g219
tp3220
a(I15327
g219
tp3221
a(I15332
g465
tp3222
a(I15334
g465
tp3223
a(I15335
g465
tp3224
a(I15337
g85
tp3225
a(I15339
g85
tp3226
a(I15355
g85
tp3227
a(I15356
g176
tp3228
a(I15357
g176
tp3229
a(I15358
g176
tp3230
a(I15359
g176
tp3231
a(I15360
g163
tp3232
a(I15361
g203
tp3233
a(I15362
g203
tp3234
a(I15363
g163
tp3235
a(I15364
g160
tp3236
a(I15365
g160
tp3237
a(I15371
g160
tp3238
a(I15372
g160
tp3239
a(I15373
g160
tp3240
a(I15405
g160
tp3241
a(I15406
g160
tp3242
a(I15410
g160
tp3243
a(I15411
g160
tp3244
a(I15412
g165
tp3245
a(I15413
g160
tp3246
a(I15415
g160
tp3247
a(I15418
g160
tp3248
a(I15453
g160
tp3249
a(I15455
g160
tp3250
a(I15456
g16
tp3251
a(I15457
g180
tp3252
a(I15458
g16
tp3253
a(I15459
g160
tp3254
a(I15463
g160
tp3255
a(I15464
g160
tp3256
a(I15465
g160
tp3257
a(I15468
g160
tp3258
a(I15503
g160
tp3259
a(I15504
g163
tp3260
a(I15505
g160
tp3261
a(I15507
g160
tp3262
a(I15508
g165
tp3263
a(I15509
g160
tp3264
a(I15517
g160
tp3265
a(I15518
g160
tp3266
a(I15519
g160
tp3267
a(I15521
g160
tp3268
a(I15527
g160
tp3269
a(I15550
g160
tp3270
a(I15552
g165
tp3271
a(I15553
g160
tp3272
a(I15570
g160
tp3273
a(I15579
g160
tp3274
a(I15582
g160
tp3275
a(I15590
g160
tp3276
a(I15591
g160
tp3277
a(I15597
g165
tp3278
a(I15598
g165
tp3279
a(I15599
g165
tp3280
a(I15600
g203
tp3281
a(I15602
g165
tp3282
a(I15603
g165
tp3283
a(I15604
g165
tp3284
a(I15605
g165
tp3285
a(I15611
g165
tp3286
a(I15612
g165
tp3287
a(I15615
g165
tp3288
a(I15618
g165
tp3289
a(I15642
g165
tp3290
a(I15643
g160
tp3291
a(I15644
g160
tp3292
a(I15645
g160
tp3293
a(I15646
g160
tp3294
a(I15647
g160
tp3295
a(I15648
g160
tp3296
a(I15649
g180
tp3297
a(I15650
g16
tp3298
a(I15651
g160
tp3299
a(I15656
g160
tp3300
a(I15657
g160
tp3301
a(I15659
g160
tp3302
a(I15692
g160
tp3303
a(I15695
g160
tp3304
a(I15696
g163
tp3305
a(I15697
g268
tp3306
a(I15698
g160
tp3307
a(I15699
g160
tp3308
a(I15702
g160
tp3309
a(I15703
g160
tp3310
a(I15705
g160
tp3311
a(I15706
g160
tp3312
a(I15710
g160
tp3313
a(I15724
g160
tp3314
a(I15728
g160
tp3315
a(I15737
g160
tp3316
a(I15739
g160
tp3317
a(I15740
g16
tp3318
a(I15741
g16
tp3319
a(I15742
g160
tp3320
a(I15743
g160
tp3321
a(I15744
g160
tp3322
a(I15745
g160
tp3323
a(I15746
g160
tp3324
a(I15747
g16
tp3325
a(I15748
g160
tp3326
a(I15756
g160
tp3327
a(I15757
g160
tp3328
a(I15758
g160
tp3329
a(I15785
g160
tp3330
a(I15786
g160
tp3331
a(I15787
g160
tp3332
a(I15788
g160
tp3333
a(I15789
g160
tp3334
a(I15792
g83
tp3335
a(I15795
g83
tp3336
a(I15809
g518
tp3337
a(I15835
g1919
tp3338
a(I15841
g1919
tp3339
a(I15888
g83
tp3340
a(I15936
g83
tp3341
a(I16027
g157
tp3342
a(I16032
g83
tp3343
a(I16033
S'0_major'
p3344
tp3345
a(I16034
g83
tp3346
a(I16123
g4
tp3347
a(I16124
g9
tp3348
a(I16127
g9
tp3349
a(I16128
g9
tp3350
a(I16130
g71
tp3351
a(I16131
g71
tp3352
a(I16132
g71
tp3353
a(I16133
g71
tp3354
a(I16139
g71
tp3355
a(I16141
g71
tp3356
a(I16142
g71
tp3357
a(I16175
g71
tp3358
a(I16176
g71
tp3359
a(I16177
g71
tp3360
a(I16179
g71
tp3361
a(I16180
g71
tp3362
a(I16181
g71
tp3363
a(I16182
g71
tp3364
a(I16183
g71
tp3365
a(I16185
g71
tp3366
a(I16222
g71
tp3367
a(I16223
g71
tp3368
a(I16224
g71
tp3369
a(I16225
g71
tp3370
a(I16226
g71
tp3371
a(I16227
g71
tp3372
a(I16232
g71
tp3373
a(I16233
g71
tp3374
a(I16234
g71
tp3375
a(I16235
g71
tp3376
a(I16244
g9
tp3377
a(I16261
g9
tp3378
a(I16269
g9
tp3379
a(I16270
g9
tp3380
a(I16271
g9
tp3381
a(I16272
g9
tp3382
a(I16273
g71
tp3383
a(I16275
g71
tp3384
a(I16276
g71
tp3385
a(I16277
g71
tp3386
a(I16282
g71
tp3387
a(I16283
g71
tp3388
a(I16284
g71
tp3389
a(I16285
g71
tp3390
a(I16286
g71
tp3391
a(I16289
g9
tp3392
a(I16318
g9
tp3393
a(I16319
g9
tp3394
a(I16320
g9
tp3395
a(I16321
g71
tp3396
a(I16322
g71
tp3397
a(I16323
g71
tp3398
a(I16331
g71
tp3399
a(I16333
g71
tp3400
a(I16334
g71
tp3401
a(I16361
g9
tp3402
a(I16366
g9
tp3403
a(I16368
g9
tp3404
a(I16371
g9
tp3405
a(I16372
g9
tp3406
a(I16410
g9
tp3407
a(I16413
g9
tp3408
a(I16415
g9
tp3409
a(I16416
g9
tp3410
a(I16417
g71
tp3411
a(I16418
g71
tp3412
a(I16419
g71
tp3413
a(I16425
g71
tp3414
a(I16426
g71
tp3415
a(I16428
g71
tp3416
a(I16431
g71
tp3417
a(I16443
g9
tp3418
a(I16458
g9
tp3419
a(I16460
g9
tp3420
a(I16462
g9
tp3421
a(I16463
g9
tp3422
a(I16464
g71
tp3423
a(I16465
g71
tp3424
a(I16466
g71
tp3425
a(I16467
g71
tp3426
a(I16468
g71
tp3427
a(I16469
g71
tp3428
a(I16471
g71
tp3429
a(I16472
g71
tp3430
a(I16484
g3344
tp3431
a(I16491
g3344
tp3432
a(I16498
g4
tp3433
a(I16507
g87
tp3434
a(I16508
g87
tp3435
a(I16509
g85
tp3436
a(I16511
g85
tp3437
a(I16512
g85
tp3438
a(I16514
g85
tp3439
a(I16515
g133
tp3440
a(I16516
g133
tp3441
a(I16517
g85
tp3442
a(I16518
g85
tp3443
a(I16519
g85
tp3444
a(I16520
g85
tp3445
a(I16521
g85
tp3446
a(I16522
g85
tp3447
a(I16559
g85
tp3448
a(I16561
g85
tp3449
a(I16562
g85
tp3450
a(I16563
g85
tp3451
a(I16564
g133
tp3452
a(I16565
g85
tp3453
a(I16568
g85
tp3454
a(I16570
g85
tp3455
a(I16571
g85
tp3456
a(I16577
g85
tp3457
a(I16603
g85
tp3458
a(I16606
g85
tp3459
a(I16607
g85
tp3460
a(I16608
g94
tp3461
a(I16609
g87
tp3462
a(I16610
g85
tp3463
a(I16613
g85
tp3464
a(I16616
g85
tp3465
a(I16619
g85
tp3466
a(I16621
g85
tp3467
a(I16644
g85
tp3468
a(I16651
g85
tp3469
a(I16655
g87
tp3470
a(I16656
g87
tp3471
a(I16657
g87
tp3472
a(I16658
g87
tp3473
a(I16659
g94
tp3474
a(I16660
g87
tp3475
a(I16663
g85
tp3476
a(I16666
g85
tp3477
a(I16667
g85
tp3478
a(I16669
g85
tp3479
a(I16671
g85
tp3480
a(I16676
g85
tp3481
a(I16703
g85
tp3482
a(I16704
g133
tp3483
a(I16705
g85
tp3484
a(I16706
g85
tp3485
a(I16707
g85
tp3486
a(I16715
g85
tp3487
a(I16716
g85
tp3488
a(I16718
g85
tp3489
a(I16722
g85
tp3490
a(I16742
g85
tp3491
a(I16746
g85
tp3492
a(I16750
g85
tp3493
a(I16752
g133
tp3494
a(I16753
g133
tp3495
a(I16755
g133
tp3496
a(I16756
g133
tp3497
a(I16758
g133
tp3498
a(I16760
g133
tp3499
a(I16762
g133
tp3500
a(I16776
g133
tp3501
a(I16796
g133
tp3502
a(I16797
g133
tp3503
a(I16798
g85
tp3504
a(I16799
g133
tp3505
a(I16800
g94
tp3506
a(I16801
g94
tp3507
a(I16802
g94
tp3508
a(I16803
g133
tp3509
a(I16812
g133
tp3510
a(I16814
g133
tp3511
a(I16815
g133
tp3512
a(I16832
g133
tp3513
a(I16841
g133
tp3514
a(I16846
g133
tp3515
a(I16848
g133
tp3516
a(I16849
g94
tp3517
a(I16850
g94
tp3518
a(I16851
g133
tp3519
a(I16852
g133
tp3520
a(I16855
g133
tp3521
a(I16856
g133
tp3522
a(I16857
g133
tp3523
a(I16868
g133
tp3524
a(I16869
g133
tp3525
a(I16871
g80
tp3526
a(I16877
g83
tp3527
a(I16878
g83
tp3528
a(I16892
g163
tp3529
a(I16895
g163
tp3530
a(I16896
g163
tp3531
a(I16898
g163
tp3532
a(I16899
g203
tp3533
a(I16900
g160
tp3534
a(I16901
g160
tp3535
a(I16902
g160
tp3536
a(I16910
g160
tp3537
a(I16911
g160
tp3538
a(I16913
g160
tp3539
a(I16932
g160
tp3540
a(I16944
g160
tp3541
a(I16945
g160
tp3542
a(I16947
g160
tp3543
a(I16948
g165
tp3544
a(I16949
g160
tp3545
a(I16950
g160
tp3546
a(I16952
g160
tp3547
a(I16990
g160
tp3548
a(I16991
g160
tp3549
a(I16992
g180
tp3550
a(I16993
g180
tp3551
a(I16994
g16
tp3552
a(I16995
g160
tp3553
a(I17000
g160
tp3554
a(I17002
g160
tp3555
a(I17005
g160
tp3556
a(I17013
g160
tp3557
a(I17034
g160
tp3558
a(I17038
g160
tp3559
a(I17039
g160
tp3560
a(I17040
g163
tp3561
a(I17041
g163
tp3562
a(I17042
g160
tp3563
a(I17043
g165
tp3564
a(I17044
g160
tp3565
a(I17049
g160
tp3566
a(I17050
g160
tp3567
a(I17051
g160
tp3568
a(I17053
g160
tp3569
a(I17054
g160
tp3570
a(I17086
g160
tp3571
a(I17087
g160
tp3572
a(I17088
g163
tp3573
a(I17089
g203
tp3574
a(I17090
g163
tp3575
a(I17091
g160
tp3576
a(I17097
g160
tp3577
a(I17098
g160
tp3578
a(I17100
g160
tp3579
a(I17120
g160
tp3580
a(I17134
g160
tp3581
a(I17136
g165
tp3582
a(I17137
g165
tp3583
a(I17139
g165
tp3584
a(I17140
g165
tp3585
a(I17142
g165
tp3586
a(I17143
g165
tp3587
a(I17145
g165
tp3588
a(I17168
g160
tp3589
a(I17175
g160
tp3590
a(I17182
g160
tp3591
a(I17183
g160
tp3592
a(I17184
g180
tp3593
a(I17185
g180
tp3594
a(I17186
g16
tp3595
a(I17187
g160
tp3596
a(I17193
g160
tp3597
a(I17194
g160
tp3598
a(I17195
g160
tp3599
a(I17196
g160
tp3600
a(I17198
g160
tp3601
a(I17223
g160
tp3602
a(I17229
g160
tp3603
a(I17231
g160
tp3604
a(I17232
g160
tp3605
a(I17233
g160
tp3606
a(I17234
g160
tp3607
a(I17235
g160
tp3608
a(I17236
g165
tp3609
a(I17237
g160
tp3610
a(I17239
g160
tp3611
a(I17240
g160
tp3612
a(I17243
g160
tp3613
a(I17244
g160
tp3614
a(I17278
g160
tp3615
a(I17279
g160
tp3616
a(I17280
g163
tp3617
a(I17281
g203
tp3618
a(I17282
g163
tp3619
a(I17283
g160
tp3620
a(I17289
g160
tp3621
a(I17290
g160
tp3622
a(I17291
g160
tp3623
a(I17293
g160
tp3624
a(I17322
g160
tp3625
a(I17332
g165
tp3626
a(I17333
g160
tp3627
a(I17348
g160
tp3628
a(I17374
g160
tp3629
a(I17375
g160
tp3630
a(I17376
g16
tp3631
a(I17377
g180
tp3632
a(I17378
g16
tp3633
a(I17379
g160
tp3634
a(I17380
g160
tp3635
a(I17382
g160
tp3636
a(I17384
g160
tp3637
a(I17386
g160
tp3638
a(I17387
g160
tp3639
a(I17418
g160
tp3640
a(I17421
g160
tp3641
a(I17422
g160
tp3642
a(I17423
g160
tp3643
a(I17424
g163
tp3644
a(I17425
g160
tp3645
a(I17427
g165
tp3646
a(I17428
g160
tp3647
a(I17436
g160
tp3648
a(I17438
g160
tp3649
a(I17439
g160
tp3650
a(I17441
g160
tp3651
a(I17469
g160
tp3652
a(I17470
g160
tp3653
a(I17471
g160
tp3654
a(I17472
g163
tp3655
a(I17473
g268
tp3656
a(I17474
g268
tp3657
a(I17475
g268
tp3658
a(I17476
g176
tp3659
a(I17477
g176
tp3660
a(I17478
g176
tp3661
a(I17479
g176
tp3662
a(I17517
g94
tp3663
a(I17518
g94
tp3664
a(I17519
g94
tp3665
a(I17520
g94
tp3666
a(I17522
g94
tp3667
a(I17523
g94
tp3668
a(I17524
g94
tp3669
a(I17533
g94
tp3670
a(I17534
g94
tp3671
a(I17536
g94
tp3672
a(I17553
g94
tp3673
a(I17562
g165
tp3674
a(I17563
g165
tp3675
a(I17565
g165
tp3676
a(I17566
g165
tp3677
a(I17567
g165
tp3678
a(I17568
g180
tp3679
a(I17569
g180
tp3680
a(I17570
g180
tp3681
a(I17571
g165
tp3682
a(I17602
g165
tp3683
a(I17608
g165
tp3684
a(I17614
g165
tp3685
a(I17615
g165
tp3686
a(I17616
g165
tp3687
a(I17617
g597
tp3688
a(I17618
g165
tp3689
a(I17620
g165
tp3690
a(I17625
g165
tp3691
a(I17626
g165
tp3692
a(I17628
g165
tp3693
a(I17629
g165
tp3694
a(I17630
g165
tp3695
a(I17631
g165
tp3696
a(I17647
g165
tp3697
a(I17649
g430
tp3698
a(I17650
g1473
tp3699
a(I17654
g1919
tp3700
a(I17659
g9
tp3701
a(I17660
g16
tp3702
a(I17661
g16
tp3703
a(I17663
g16
tp3704
a(I17664
g16
tp3705
a(I17666
g1419
tp3706
a(I17667
g1419
tp3707
a(I17668
g1419
tp3708
a(I17669
g1419
tp3709
a(I17671
g71
tp3710
a(I17675
g71
tp3711
a(I17676
g71
tp3712
a(I17716
g71
tp3713
a(I17717
g71
tp3714
a(I17727
g9
tp3715
a(I17729
g9
tp3716
a(I17758
g9
tp3717
a(I17759
g9
tp3718
a(I17760
g9
tp3719
a(I17761
g71
tp3720
a(I17762
g71
tp3721
a(I17763
g71
tp3722
a(I17768
g71
tp3723
a(I17771
g71
tp3724
a(I17772
g71
tp3725
a(I17774
g71
tp3726
a(I17778
g9
tp3727
a(I17805
g9
tp3728
a(I17806
g9
tp3729
a(I17807
g9
tp3730
a(I17808
g9
tp3731
a(I17809
g71
tp3732
a(I17810
g71
tp3733
a(I17811
g71
tp3734
a(I17812
g71
tp3735
a(I17813
g71
tp3736
a(I17817
g71
tp3737
a(I17819
g71
tp3738
a(I17820
g71
tp3739
a(I17822
g71
tp3740
a(I17848
g71
tp3741
a(I17854
g71
tp3742
a(I17855
g71
tp3743
a(I17856
g71
tp3744
a(I17857
g71
tp3745
a(I17858
g71
tp3746
a(I17859
g71
tp3747
a(I17868
g71
tp3748
a(I17869
g71
tp3749
a(I17871
g71
tp3750
a(I17891
g9
tp3751
a(I17903
g9
tp3752
a(I17904
g9
tp3753
a(I17906
g9
tp3754
a(I17907
g9
tp3755
a(I17908
g9
tp3756
a(I17909
g9
tp3757
a(I17910
g9
tp3758
a(I17911
g9
tp3759
a(I17929
g9
tp3760
a(I17949
g9
tp3761
a(I17950
g9
tp3762
a(I17951
g71
tp3763
a(I17952
g71
tp3764
a(I17953
g71
tp3765
a(I17954
g71
tp3766
a(I17955
g71
tp3767
a(I17963
g71
tp3768
a(I17964
g71
tp3769
a(I17966
g71
tp3770
a(I17967
g71
tp3771
a(I17975
g9
tp3772
a(I17999
g9
tp3773
a(I18000
g71
tp3774
a(I18001
g71
tp3775
a(I18002
g71
tp3776
a(I18004
g71
tp3777
a(I18005
g71
tp3778
a(I18009
g71
tp3779
a(I18010
g71
tp3780
a(I18011
g71
tp3781
a(I18013
g71
tp3782
a(I18015
g71
tp3783
a(I18023
g3344
tp3784
a(I18025
g3344
tp3785
a(I18043
g71
tp3786
a(I18044
g94
tp3787
a(I18045
g133
tp3788
a(I18047
g133
tp3789
a(I18048
g133
tp3790
a(I18050
g85
tp3791
a(I18051
g133
tp3792
a(I18052
g85
tp3793
a(I18053
g85
tp3794
a(I18054
g85
tp3795
a(I18055
g85
tp3796
a(I18063
g85
tp3797
a(I18064
g85
tp3798
a(I18065
g85
tp3799
a(I18067
g85
tp3800
a(I18096
g85
tp3801
a(I18097
g85
tp3802
a(I18098
g85
tp3803
a(I18099
g85
tp3804
a(I18100
g133
tp3805
a(I18101
g85
tp3806
a(I18102
g85
tp3807
a(I18103
g85
tp3808
a(I18104
g85
tp3809
a(I18110
g85
tp3810
a(I18143
g85
tp3811
a(I18144
g94
tp3812
a(I18145
g87
tp3813
a(I18146
g85
tp3814
a(I18152
g85
tp3815
a(I18153
g85
tp3816
a(I18154
g85
tp3817
a(I18155
g85
tp3818
a(I18156
g85
tp3819
a(I18183
g85
tp3820
a(I18184
g85
tp3821
a(I18189
g85
tp3822
a(I18190
g85
tp3823
a(I18191
g85
tp3824
a(I18192
g85
tp3825
a(I18193
g85
tp3826
a(I18194
g85
tp3827
a(I18195
g133
tp3828
a(I18196
g85
tp3829
a(I18199
g85
tp3830
a(I18201
g85
tp3831
a(I18204
g85
tp3832
a(I18205
g85
tp3833
a(I18213
g85
tp3834
a(I18238
g85
tp3835
a(I18239
g85
tp3836
a(I18240
g85
tp3837
a(I18241
g133
tp3838
a(I18242
g85
tp3839
a(I18243
g85
tp3840
a(I18250
g85
tp3841
a(I18251
g85
tp3842
a(I18252
g85
tp3843
a(I18275
g85
tp3844
a(I18284
g85
tp3845
a(I18286
g85
tp3846
a(I18288
g133
tp3847
a(I18290
g133
tp3848
a(I18291
g133
tp3849
a(I18292
g133
tp3850
a(I18294
g133
tp3851
a(I18295
g133
tp3852
a(I18297
g133
tp3853
a(I18322
g133
tp3854
a(I18326
g133
tp3855
a(I18334
g85
tp3856
a(I18335
g465
tp3857
a(I18336
g94
tp3858
a(I18337
g94
tp3859
a(I18338
g268
tp3860
a(I18339
g268
tp3861
a(I18340
g465
tp3862
a(I18344
g465
tp3863
a(I18347
g465
tp3864
a(I18348
g465
tp3865
a(I18351
g465
tp3866
a(I18383
g465
tp3867
a(I18385
g465
tp3868
a(I18386
g465
tp3869
a(I18387
g219
tp3870
a(I18389
g465
tp3871
a(I18392
g465
tp3872
a(I18394
g465
tp3873
a(I18395
g465
tp3874
a(I18401
g465
tp3875
a(I18402
g465
tp3876
a(I18403
g85
tp3877
a(I18405
g85
tp3878
a(I18406
g83
tp3879
a(I18407
g83
tp3880
a(I18427
g160
tp3881
a(I18431
g160
tp3882
a(I18432
g163
tp3883
a(I18433
g163
tp3884
a(I18434
g203
tp3885
a(I18435
g165
tp3886
a(I18436
g160
tp3887
a(I18443
g160
tp3888
a(I18444
g160
tp3889
a(I18446
g160
tp3890
a(I18480
g160
tp3891
a(I18481
g160
tp3892
a(I18482
g160
tp3893
a(I18484
g165
tp3894
a(I18485
g160
tp3895
a(I18486
g160
tp3896
a(I18487
g160
tp3897
a(I18489
g160
tp3898
a(I18490
g160
tp3899
a(I18527
g160
tp3900
a(I18528
g180
tp3901
a(I18529
g180
tp3902
a(I18531
g160
tp3903
a(I18535
g160
tp3904
a(I18536
g160
tp3905
a(I18538
g160
tp3906
a(I18539
g160
tp3907
a(I18541
g160
tp3908
a(I18551
g160
tp3909
a(I18574
g160
tp3910
a(I18575
g160
tp3911
a(I18576
g163
tp3912
a(I18577
g163
tp3913
a(I18578
g160
tp3914
a(I18579
g165
tp3915
a(I18580
g160
tp3916
a(I18587
g160
tp3917
a(I18588
g160
tp3918
a(I18589
g160
tp3919
a(I18590
g160
tp3920
a(I18593
g160
tp3921
a(I18623
g160
tp3922
a(I18624
g203
tp3923
a(I18625
g163
tp3924
a(I18626
g163
tp3925
a(I18627
g160
tp3926
a(I18635
g160
tp3927
a(I18636
g160
tp3928
a(I18637
g160
tp3929
a(I18641
g160
tp3930
a(I18671
g160
tp3931
a(I18672
g160
tp3932
a(I18674
g160
tp3933
a(I18675
g165
tp3934
a(I18676
g160
tp3935
a(I18678
g160
tp3936
a(I18679
g160
tp3937
a(I18681
g160
tp3938
a(I18699
g160
tp3939
a(I18704
g160
tp3940
a(I18718
g165
tp3941
a(I18719
g165
tp3942
a(I18720
g180
tp3943
a(I18722
g180
tp3944
a(I18723
g597
tp3945
a(I18724
g165
tp3946
a(I18725
g165
tp3947
a(I18728
g165
tp3948
a(I18730
g165
tp3949
a(I18731
g165
tp3950
a(I18733
g165
tp3951
a(I18748
g165
tp3952
a(I18762
g160
tp3953
a(I18767
g160
tp3954
a(I18768
g160
tp3955
a(I18769
g163
tp3956
a(I18770
g160
tp3957
a(I18771
g160
tp3958
a(I18774
g160
tp3959
a(I18776
g160
tp3960
a(I18778
g160
tp3961
a(I18779
g160
tp3962
a(I18783
g160
tp3963
a(I18794
g160
tp3964
a(I18803
g160
tp3965
a(I18813
g160
tp3966
a(I18814
g16
tp3967
a(I18815
g16
tp3968
a(I18816
g16
tp3969
a(I18817
g160
tp3970
a(I18818
g160
tp3971
a(I18819
g16
tp3972
a(I18820
g160
tp3973
a(I18827
g160
tp3974
a(I18828
g160
tp3975
a(I18829
g160
tp3976
a(I18830
g160
tp3977
a(I18842
g160
tp3978
a(I18862
g160
tp3979
a(I18864
g163
tp3980
a(I18865
g163
tp3981
a(I18866
g160
tp3982
a(I18867
g160
tp3983
a(I18869
g160
tp3984
a(I18871
g160
tp3985
a(I18872
g160
tp3986
a(I18874
g160
tp3987
a(I18909
g160
tp3988
a(I18911
g165
tp3989
a(I18912
g165
tp3990
a(I18913
g180
tp3991
a(I18914
g180
tp3992
a(I18915
g180
tp3993
a(I18916
g165
tp3994
a(I18920
g165
tp3995
a(I18921
g165
tp3996
a(I18922
g165
tp3997
a(I18923
g165
tp3998
a(I18925
g165
tp3999
a(I18937
g160
tp4000
a(I18938
g160
tp4001
a(I18939
g160
tp4002
a(I18940
g160
tp4003
a(I18957
g160
tp4004
a(I18959
g160
tp4005
a(I18960
g163
tp4006
a(I18961
g268
tp4007
a(I18962
g176
tp4008
a(I18963
g160
tp4009
a(I18964
g160
tp4010
a(I18969
g160
tp4011
a(I18971
g160
tp4012
a(I18972
g160
tp4013
a(I19004
g16
tp4014
a(I19005
g160
tp4015
a(I19006
g160
tp4016
a(I19007
g160
tp4017
a(I19008
g16
tp4018
a(I19009
g180
tp4019
a(I19010
g165
tp4020
a(I19018
g165
tp4021
a(I19020
g165
tp4022
a(I19021
g165
tp4023
a(I19037
g165
tp4024
a(I19039
g165
tp4025
a(I19050
g160
tp4026
a(I19053
g160
tp4027
a(I19054
g165
tp4028
a(I19056
g203
tp4029
a(I19057
g165
tp4030
a(I19058
g165
tp4031
a(I19059
g165
tp4032
a(I19060
g165
tp4033
a(I19061
g165
tp4034
a(I19062
g165
tp4035
a(I19064
g165
tp4036
a(I19065
g165
tp4037
a(I19092
g165
tp4038
a(I19097
g165
tp4039
a(I19101
g165
tp4040
a(I19102
g165
tp4041
a(I19103
g165
tp4042
a(I19104
g165
tp4043
a(I19105
g165
tp4044
a(I19106
g165
tp4045
a(I19107
g165
tp4046
a(I19108
g160
tp4047
a(I19112
g160
tp4048
a(I19113
g160
tp4049
a(I19114
g160
tp4050
a(I19117
g160
tp4051
a(I19152
g163
tp4052
a(I19153
g203
tp4053
a(I19154
g619
tp4054
a(I19155
g160
tp4055
a(I19157
g160
tp4056
a(I19159
g160
tp4057
a(I19163
g160
tp4058
a(I19164
g160
tp4059
a(I19166
g160
tp4060
a(I19169
g160
tp4061
a(I19172
g160
tp4062
a(I19181
g160
tp4063
a(I19187
g1919
tp4064
a(I19195
g9
tp4065
a(I19196
g16
tp4066
a(I19197
g16
tp4067
a(I19198
g9
tp4068
a(I19199
g9
tp4069
a(I19200
g9
tp4070
a(I19201
g16
tp4071
a(I19202
g16
tp4072
a(I19203
g9
tp4073
a(I19204
g9
tp4074
a(I19205
g9
tp4075
a(I19207
g9
tp4076
a(I19212
g9
tp4077
a(I19213
g9
tp4078
a(I19215
g9
tp4079
a(I19232
g9
tp4080
a(I19248
g9
tp4081
a(I19249
g9
tp4082
a(I19250
g9
tp4083
a(I19251
g9
tp4084
a(I19252
g9
tp4085
a(I19253
g9
tp4086
a(I19254
g9
tp4087
a(I19256
g9
tp4088
a(I19257
g9
tp4089
a(I19267
g9
tp4090
a(I19295
g9
tp4091
a(I19296
g9
tp4092
a(I19297
g9
tp4093
a(I19298
g9
tp4094
a(I19299
g9
tp4095
a(I19305
g9
tp4096
a(I19306
g9
tp4097
a(I19307
g9
tp4098
a(I19310
g9
tp4099
a(I19316
g9
tp4100
a(I19327
g9
tp4101
a(I19341
g9
tp4102
a(I19342
g9
tp4103
a(I19343
g9
tp4104
a(I19344
g9
tp4105
a(I19345
g9
tp4106
a(I19347
g9
tp4107
a(I19348
g9
tp4108
a(I19353
g9
tp4109
a(I19355
g9
tp4110
a(I19357
g9
tp4111
a(I19360
g9
tp4112
a(I19378
g9
tp4113
a(I19379
g9
tp4114
a(I19389
g346
tp4115
a(I19390
g346
tp4116
a(I19391
g346
tp4117
a(I19392
g346
tp4118
a(I19393
g346
tp4119
a(I19394
g346
tp4120
a(I19395
g346
tp4121
a(I19402
g346
tp4122
a(I19403
g346
tp4123
a(I19404
g346
tp4124
a(I19406
g346
tp4125
a(I19417
g346
tp4126
a(I19419
g346
tp4127
a(I19425
g346
tp4128
a(I19437
g346
tp4129
a(I19438
g346
tp4130
a(I19440
g346
tp4131
a(I19442
g346
tp4132
a(I19443
g346
tp4133
a(I19444
g346
tp4134
a(I19448
g346
tp4135
a(I19450
g346
tp4136
a(I19466
g346
tp4137
a(I19487
g346
tp4138
a(I19488
g346
tp4139
a(I19489
g346
tp4140
a(I19490
g346
tp4141
a(I19491
g346
tp4142
a(I19492
g346
tp4143
a(I19498
g346
tp4144
a(I19501
g346
tp4145
a(I19502
g346
tp4146
a(I19507
g346
tp4147
a(I19527
g346
tp4148
a(I19536
g346
tp4149
a(I19537
g346
tp4150
a(I19538
g346
tp4151
a(I19540
g346
tp4152
a(I19541
g346
tp4153
a(I19542
g346
tp4154
a(I19545
g346
tp4155
a(I19547
g346
tp4156
a(I19549
g346
tp4157
a(I19559
g346
tp4158
a(I19561
g346
tp4159
a(I19562
g339
tp4160
a(I19570
g2
tp4161
a(I19579
g80
tp4162
a(I19580
g133
tp4163
a(I19581
g133
tp4164
a(I19582
g133
tp4165
a(I19583
g133
tp4166
a(I19584
g133
tp4167
a(I19585
g133
tp4168
a(I19586
g133
tp4169
a(I19587
g133
tp4170
a(I19588
g133
tp4171
a(I19589
g85
tp4172
a(I19595
g85
tp4173
a(I19596
g85
tp4174
a(I19597
g85
tp4175
a(I19598
g85
tp4176
a(I19611
g85
tp4177
a(I19630
g85
tp4178
a(I19631
g85
tp4179
a(I19632
g163
tp4180
a(I19633
g163
tp4181
a(I19635
g163
tp4182
a(I19636
g94
tp4183
a(I19637
g163
tp4184
a(I19638
g163
tp4185
a(I19639
g163
tp4186
a(I19641
g163
tp4187
a(I19679
g163
tp4188
a(I19680
g94
tp4189
a(I19681
g1419
tp4190
a(I19682
g163
tp4191
a(I19687
g163
tp4192
a(I19690
g163
tp4193
a(I19692
g163
tp4194
a(I19727
g163
tp4195
a(I19728
g163
tp4196
a(I19729
g163
tp4197
a(I19731
g163
tp4198
a(I19732
g94
tp4199
a(I19733
g163
tp4200
a(I19736
g163
tp4201
a(I19737
g163
tp4202
a(I19739
g163
tp4203
a(I19740
g163
tp4204
a(I19742
g163
tp4205
a(I19760
g163
tp4206
a(I19773
g465
tp4207
a(I19774
g465
tp4208
a(I19775
g219
tp4209
a(I19776
g219
tp4210
a(I19777
g219
tp4211
a(I19778
g219
tp4212
a(I19779
g219
tp4213
a(I19788
g219
tp4214
a(I19790
g219
tp4215
a(I19797
g219
tp4216
a(I19798
g219
tp4217
a(I19815
g219
tp4218
a(I19821
g219
tp4219
a(I19822
g219
tp4220
a(I19824
g219
tp4221
a(I19825
g219
tp4222
a(I19826
g219
tp4223
a(I19827
g219
tp4224
a(I19828
g219
tp4225
a(I19831
g219
tp4226
a(I19832
g219
tp4227
a(I19864
g133
tp4228
a(I19865
g85
tp4229
a(I19869
g85
tp4230
a(I19871
g85
tp4231
a(I19872
g94
tp4232
a(I19873
g87
tp4233
a(I19875
g87
tp4234
a(I19876
g85
tp4235
a(I19881
g85
tp4236
a(I19883
g85
tp4237
a(I19884
g85
tp4238
a(I19885
g85
tp4239
a(I19920
g465
tp4240
a(I19921
g268
tp4241
a(I19922
g465
tp4242
a(I19923
g465
tp4243
a(I19927
g465
tp4244
a(I19930
g465
tp4245
a(I19931
g465
tp4246
a(I19940
g85
tp4247
a(I19948
g85
tp4248
a(I19950
g85
tp4249
a(I19957
g85
tp4250
a(I19960
g85
tp4251
a(I19961
g155
tp4252
a(I19963
g176
tp4253
a(I19965
g176
tp4254
a(I19967
g176
tp4255
a(I19968
g268
tp4256
a(I19970
g268
tp4257
a(I19971
g176
tp4258
a(I19979
g176
tp4259
a(I19980
g176
tp4260
a(I19982
g176
tp4261
a(I19983
g176
tp4262
a(I19984
g176
tp4263
a(I19995
g160
tp4264
a(I20015
g160
tp4265
a(I20017
g160
tp4266
a(I20019
g160
tp4267
a(I20020
g165
tp4268
a(I20021
g160
tp4269
a(I20022
g160
tp4270
a(I20024
g160
tp4271
a(I20062
g160
tp4272
a(I20063
g160
tp4273
a(I20064
g180
tp4274
a(I20065
g16
tp4275
a(I20066
g160
tp4276
a(I20072
g160
tp4277
a(I20073
g160
tp4278
a(I20075
g160
tp4279
a(I20076
g160
tp4280
a(I20077
g160
tp4281
a(I20078
g160
tp4282
a(I20110
g160
tp4283
a(I20111
g160
tp4284
a(I20112
g163
tp4285
a(I20113
g160
tp4286
a(I20115
g165
tp4287
a(I20116
g160
tp4288
a(I20120
g160
tp4289
a(I20121
g160
tp4290
a(I20122
g160
tp4291
a(I20124
g160
tp4292
a(I20125
g160
tp4293
a(I20158
g160
tp4294
a(I20159
g160
tp4295
a(I20160
g163
tp4296
a(I20161
g203
tp4297
a(I20162
g203
tp4298
a(I20163
g163
tp4299
a(I20164
g160
tp4300
a(I20170
g160
tp4301
a(I20172
g160
tp4302
a(I20173
g160
tp4303
a(I20201
g160
tp4304
a(I20205
g160
tp4305
a(I20208
g160
tp4306
a(I20211
g160
tp4307
a(I20212
g165
tp4308
a(I20213
g160
tp4309
a(I20214
g160
tp4310
a(I20215
g160
tp4311
a(I20216
g160
tp4312
a(I20229
g160
tp4313
a(I20240
g160
tp4314
a(I20247
g160
tp4315
a(I20254
g160
tp4316
a(I20255
g160
tp4317
a(I20256
g16
tp4318
a(I20257
g180
tp4319
a(I20258
g16
tp4320
a(I20259
g160
tp4321
a(I20262
g160
tp4322
a(I20267
g160
tp4323
a(I20269
g160
tp4324
a(I20271
g160
tp4325
a(I20272
g160
tp4326
a(I20286
g160
tp4327
a(I20300
g160
tp4328
a(I20303
g160
tp4329
a(I20304
g165
tp4330
a(I20305
g165
tp4331
a(I20306
g165
tp4332
a(I20308
g165
tp4333
a(I20309
g165
tp4334
a(I20311
g165
tp4335
a(I20312
g165
tp4336
a(I20313
g165
tp4337
a(I20314
g165
tp4338
a(I20316
g165
tp4339
a(I20323
g165
tp4340
a(I20328
g165
tp4341
a(I20334
g165
tp4342
a(I20342
g430
tp4343
a(I20343
g430
tp4344
a(I20348
g430
tp4345
a(I20351
g430
tp4346
a(I20352
g346
tp4347
a(I20353
g346
tp4348
a(I20354
g346
tp4349
a(I20355
g430
tp4350
a(I20356
g430
tp4351
a(I20367
g430
tp4352
a(I20368
g430
tp4353
a(I20369
g430
tp4354
a(I20400
g165
tp4355
a(I20401
g165
tp4356
a(I20402
g165
tp4357
a(I20403
g165
tp4358
a(I20404
g165
tp4359
a(I20405
g165
tp4360
a(I20406
g165
tp4361
a(I20407
g165
tp4362
a(I20409
g165
tp4363
a(I20448
g165
tp4364
a(I20449
g180
tp4365
a(I20450
g180
tp4366
a(I20451
g165
tp4367
a(I20456
g165
tp4368
a(I20459
g165
tp4369
a(I20460
g165
tp4370
a(I20462
g165
tp4371
a(I20467
g165
tp4372
a(I20480
g165
tp4373
a(I20494
g165
tp4374
a(I20495
g165
tp4375
a(I20496
g203
tp4376
a(I20497
g203
tp4377
a(I20498
g203
tp4378
a(I20499
g203
tp4379
a(I20500
g165
tp4380
a(I20501
g165
tp4381
a(I20505
g165
tp4382
a(I20507
g165
tp4383
a(I20509
g165
tp4384
a(I20540
g430
tp4385
a(I20541
g165
tp4386
a(I20544
g165
tp4387
a(I20545
g165
tp4388
a(I20546
g165
tp4389
a(I20554
g165
tp4390
a(I20556
g165
tp4391
a(I20557
g165
tp4392
a(I20569
g165
tp4393
a(I20584
g165
tp4394
a(I20586
g430
tp4395
a(I20589
g430
tp4396
a(I20590
g430
tp4397
a(I20592
g346
tp4398
a(I20593
g346
tp4399
a(I20594
g346
tp4400
a(I20595
g430
tp4401
a(I20596
g430
tp4402
a(I20598
g430
tp4403
a(I20599
g430
tp4404
a(I20600
g430
tp4405
a(I20601
g430
tp4406
a(I20624
g430
tp4407
a(I20633
g430
tp4408
a(I20637
g430
tp4409
a(I20639
g165
tp4410
a(I20640
g165
tp4411
a(I20641
g180
tp4412
a(I20642
g180
tp4413
a(I20643
g180
tp4414
a(I20644
g165
tp4415
a(I20649
g165
tp4416
a(I20650
g165
tp4417
a(I20652
g165
tp4418
a(I20664
g165
tp4419
a(I20682
g430
tp4420
a(I20686
g430
tp4421
a(I20687
g430
tp4422
a(I20688
g346
tp4423
a(I20689
g346
tp4424
a(I20690
g346
tp4425
a(I20692
g346
tp4426
a(I20693
g346
tp4427
a(I20695
g346
tp4428
a(I20696
g346
tp4429
a(I20708
g346
tp4430
a(I20714
g346
tp4431
a(I20719
g346
tp4432
a(I20720
g346
tp4433
a(I20725
g9
tp4434
a(I20727
g2
tp4435
a(I20729
g2
tp4436
a(I20731
g16
tp4437
a(I20733
g16
tp4438
a(I20735
g16
tp4439
a(I20736
g16
tp4440
a(I20737
g16
tp4441
a(I20738
g16
tp4442
a(I20739
g16
tp4443
a(I20740
g16
tp4444
a(I20741
g16
tp4445
a(I20744
g9
tp4446
a(I20746
g9
tp4447
a(I20747
g9
tp4448
a(I20749
g9
tp4449
a(I20784
g9
tp4450
a(I20785
g9
tp4451
a(I20786
g9
tp4452
a(I20787
g9
tp4453
a(I20788
g9
tp4454
a(I20789
g9
tp4455
a(I20790
g9
tp4456
a(I20792
g9
tp4457
a(I20793
g9
tp4458
a(I20800
g9
tp4459
a(I20830
g9
tp4460
a(I20831
g9
tp4461
a(I20832
g9
tp4462
a(I20833
g9
tp4463
a(I20834
g9
tp4464
a(I20835
g9
tp4465
a(I20838
g9
tp4466
a(I20840
g9
tp4467
a(I20843
g9
tp4468
a(I20846
g9
tp4469
a(I20877
g9
tp4470
a(I20878
g9
tp4471
a(I20879
g9
tp4472
a(I20880
g9
tp4473
a(I20883
g9
tp4474
a(I20884
g9
tp4475
a(I20885
g9
tp4476
a(I20888
g9
tp4477
a(I20890
g9
tp4478
a(I20891
g9
tp4479
a(I20901
g9
tp4480
a(I20902
g9
tp4481
a(I20925
g346
tp4482
a(I20926
g346
tp4483
a(I20927
g346
tp4484
a(I20928
g346
tp4485
a(I20929
g346
tp4486
a(I20930
g346
tp4487
a(I20932
g346
tp4488
a(I20933
g346
tp4489
a(I20940
g346
tp4490
a(I20942
g346
tp4491
a(I20975
g346
tp4492
a(I20976
g346
tp4493
a(I20977
g346
tp4494
a(I20979
g346
tp4495
a(I20980
g346
tp4496
a(I20983
g346
tp4497
a(I20984
g346
tp4498
a(I20985
g346
tp4499
a(I20987
g346
tp4500
a(I20989
g346
tp4501
a(I21022
g346
tp4502
a(I21023
g346
tp4503
a(I21024
g346
tp4504
a(I21025
g346
tp4505
a(I21026
g346
tp4506
a(I21027
g346
tp4507
a(I21032
g346
tp4508
a(I21033
g346
tp4509
a(I21034
g346
tp4510
a(I21035
g346
tp4511
a(I21037
g346
tp4512
a(I21044
g346
tp4513
a(I21070
g346
tp4514
a(I21072
g346
tp4515
a(I21073
g346
tp4516
a(I21074
g346
tp4517
a(I21076
g346
tp4518
a(I21077
g346
tp4519
a(I21081
g346
tp4520
a(I21083
g346
tp4521
a(I21084
g346
tp4522
a(I21085
g346
tp4523
a(I21096
g346
tp4524
a(I21097
g339
tp4525
a(I21100
g339
tp4526
a(I21114
g339
tp4527
a(I21115
g427
tp4528
a(I21116
g133
tp4529
a(I21117
g133
tp4530
a(I21119
g133
tp4531
a(I21120
g133
tp4532
a(I21121
g133
tp4533
a(I21122
g133
tp4534
a(I21123
g133
tp4535
a(I21124
g133
tp4536
a(I21127
g133
tp4537
a(I21132
g133
tp4538
a(I21133
g133
tp4539
a(I21135
g133
tp4540
a(I21136
g85
tp4541
a(I21168
g85
tp4542
a(I21169
g85
tp4543
a(I21171
g85
tp4544
a(I21172
g133
tp4545
a(I21173
g85
tp4546
a(I21174
g85
tp4547
a(I21175
g85
tp4548
a(I21177
g85
tp4549
a(I21178
g85
tp4550
a(I21214
g85
tp4551
a(I21215
g85
tp4552
a(I21216
g94
tp4553
a(I21217
g87
tp4554
a(I21218
g85
tp4555
a(I21224
g85
tp4556
a(I21227
g85
tp4557
a(I21228
g85
tp4558
a(I21263
g85
tp4559
a(I21264
g85
tp4560
a(I21265
g85
tp4561
a(I21266
g85
tp4562
a(I21267
g133
tp4563
a(I21268
g85
tp4564
a(I21275
g85
tp4565
a(I21276
g85
tp4566
a(I21278
g85
tp4567
a(I21307
g85
tp4568
a(I21311
g85
tp4569
a(I21312
g85
tp4570
a(I21313
g133
tp4571
a(I21314
g85
tp4572
a(I21315
g85
tp4573
a(I21322
g85
tp4574
a(I21324
g85
tp4575
a(I21325
g85
tp4576
a(I21328
g85
tp4577
a(I21358
g85
tp4578
a(I21360
g85
tp4579
a(I21362
g85
tp4580
a(I21363
g133
tp4581
a(I21364
g85
tp4582
a(I21367
g85
tp4583
a(I21368
g85
tp4584
a(I21378
g85
tp4585
a(I21379
g85
tp4586
a(I21395
g85
tp4587
a(I21406
g85
tp4588
a(I21407
g85
tp4589
a(I21408
g87
tp4590
a(I21409
g94
tp4591
a(I21410
g94
tp4592
a(I21411
g268
tp4593
a(I21412
g465
tp4594
a(I21419
g465
tp4595
a(I21421
g465
tp4596
a(I21423
g465
tp4597
a(I21425
g465
tp4598
a(I21441
g85
tp4599
a(I21455
g85
tp4600
a(I21456
g465
tp4601
a(I21457
g268
tp4602
a(I21458
g465
tp4603
a(I21459
g465
tp4604
a(I21464
g465
tp4605
a(I21465
g465
tp4606
a(I21466
g465
tp4607
a(I21469
g465
tp4608
a(I21472
g465
tp4609
a(I21473
g85
tp4610
a(I21475
g85
tp4611
a(I21477
g85
tp4612
a(I21499
g85
tp4613
a(I21500
g160
tp4614
a(I21501
g160
tp4615
a(I21503
g160
tp4616
a(I21504
g163
tp4617
a(I21505
g203
tp4618
a(I21506
g163
tp4619
a(I21507
g160
tp4620
a(I21508
g160
tp4621
a(I21516
g160
tp4622
a(I21517
g160
tp4623
a(I21519
g160
tp4624
a(I21551
g160
tp4625
a(I21553
g160
tp4626
a(I21554
g160
tp4627
a(I21556
g165
tp4628
a(I21557
g160
tp4629
a(I21558
g160
tp4630
a(I21559
g160
tp4631
a(I21560
g160
tp4632
a(I21562
g160
tp4633
a(I21579
g160
tp4634
a(I21581
g160
tp4635
a(I21598
g165
tp4636
a(I21599
g165
tp4637
a(I21600
g180
tp4638
a(I21601
g180
tp4639
a(I21602
g180
tp4640
a(I21603
g180
tp4641
a(I21604
g165
tp4642
a(I21606
g165
tp4643
a(I21607
g165
tp4644
a(I21609
g165
tp4645
a(I21610
g165
tp4646
a(I21612
g165
tp4647
a(I21647
g165
tp4648
a(I21648
g203
tp4649
a(I21649
g203
tp4650
a(I21650
g165
tp4651
a(I21652
g165
tp4652
a(I21653
g165
tp4653
a(I21654
g160
tp4654
a(I21655
g160
tp4655
a(I21660
g160
tp4656
a(I21663
g160
tp4657
a(I21664
g160
tp4658
a(I21695
g160
tp4659
a(I21696
g165
tp4660
a(I21697
g160
tp4661
a(I21723
g160
tp4662
a(I21724
g160
tp4663
a(I21732
g160
tp4664
a(I21733
g160
tp4665
a(I21739
g160
tp4666
a(I21741
g165
tp4667
a(I21743
g165
tp4668
a(I21744
g203
tp4669
a(I21747
g165
tp4670
a(I21748
g165
tp4671
a(I21749
g165
tp4672
a(I21753
g165
tp4673
a(I21754
g165
tp4674
a(I21755
g165
tp4675
a(I21757
g165
tp4676
a(I21773
g165
tp4677
a(I21789
g165
tp4678
a(I21790
g165
tp4679
a(I21791
g165
tp4680
a(I21792
g165
tp4681
a(I21793
g180
tp4682
a(I21794
g180
tp4683
a(I21795
g16
tp4684
a(I21796
g160
tp4685
a(I21800
g160
tp4686
a(I21801
g160
tp4687
a(I21802
g160
tp4688
a(I21803
g160
tp4689
a(I21824
g160
tp4690
a(I21825
g160
tp4691
a(I21838
g165
tp4692
a(I21840
g203
tp4693
a(I21841
g203
tp4694
a(I21842
g203
tp4695
a(I21843
g203
tp4696
a(I21844
g165
tp4697
a(I21845
g165
tp4698
a(I21847
g165
tp4699
a(I21849
g165
tp4700
a(I21850
g165
tp4701
a(I21863
g165
tp4702
a(I21868
g160
tp4703
a(I21874
g160
tp4704
a(I21875
g160
tp4705
a(I21881
g160
tp4706
a(I21884
g16
tp4707
a(I21885
g16
tp4708
a(I21886
g160
tp4709
a(I21887
g160
tp4710
a(I21888
g16
tp4711
a(I21890
g160
tp4712
a(I21891
g160
tp4713
a(I21896
g160
tp4714
a(I21898
g160
tp4715
a(I21899
g160
tp4716
a(I21925
g160
tp4717
a(I21926
g160
tp4718
a(I21927
g160
tp4719
a(I21928
g160
tp4720
a(I21929
g1473
tp4721
a(I21936
g339
tp4722
a(I21937
g1473
tp4723
a(I21941
g518
tp4724
a(I21945
g518
tp4725
a(I21979
g1919
tp4726
a(I21985
g1919
tp4727
a(I22076
g4
tp4728
a(I22077
g4
tp4729
a(I22078
g83
tp4730
a(I22083
S'5_suspended'
p4731
tp4732
a(I22084
g83
tp4733
a(I22128
g339
tp4734
a(I22129
g83
tp4735
a(I22153
g518
tp4736
a(I22172
S'1_suspended'
tp4737
a(I22173
g518
tp4738
a(I22174
g430
tp4739
a(I22177
S'2_diminished'
tp4740
a(I22178
g430
tp4741
a(I22245
g430
tp4742
a(I22249
g430
tp4743
a(I22259
g339
tp4744
a(I22263
g339
tp4745
a(I22267
g346
tp4746
a(I22269
g346
tp4747
a(I22270
g346
tp4748
a(I22271
g346
tp4749
a(I22272
g346
tp4750
a(I22273
g346
tp4751
a(I22274
g16
tp4752
a(I22275
g9
tp4753
a(I22276
g9
tp4754
a(I22277
g9
tp4755
a(I22282
g9
tp4756
a(I22283
g9
tp4757
a(I22285
g9
tp4758
a(I22315
g9
tp4759
a(I22324
g9
tp4760
a(I22325
g9
tp4761
a(I22366
g9
tp4762
a(I22367
g9
tp4763
a(I22368
g9
tp4764
a(I22369
g9
tp4765
a(I22370
S'4_dominant_seventh'
p4766
tp4767
a(I22371
g9
tp4768
a(I22375
g9
tp4769
a(I22377
g9
tp4770
a(I22378
g9
tp4771
a(I22380
g9
tp4772
a(I22403
g9
tp4773
a(I22414
g346
tp4774
a(I22415
g346
tp4775
a(I22416
g346
tp4776
a(I22417
g346
tp4777
a(I22418
g346
tp4778
a(I22419
g346
tp4779
a(I22420
g346
tp4780
a(I22423
g346
tp4781
a(I22424
g346
tp4782
a(I22425
g346
tp4783
a(I22426
g346
tp4784
a(I22427
g346
tp4785
a(I22443
g346
tp4786
a(I22462
g346
tp4787
a(I22463
S'4_dominant_ninth'
p4788
tp4789
a(I22464
g4788
tp4790
a(I22465
g346
tp4791
a(I22466
g9
tp4792
a(I22467
g9
tp4793
a(I22474
g9
tp4794
a(I22476
g9
tp4795
a(I22477
g9
tp4796
a(I22502
g9
tp4797
a(I22512
g71
tp4798
a(I22513
g9
tp4799
a(I22558
g9
tp4800
a(I22559
g4766
tp4801
a(I22560
g4766
tp4802
a(I22561
g9
tp4803
a(I22562
g9
tp4804
a(I22566
g9
tp4805
a(I22568
g9
tp4806
a(I22572
g9
tp4807
a(I22575
g9
tp4808
a(I22600
g9
tp4809
a(I22606
g346
tp4810
a(I22607
g346
tp4811
a(I22608
g346
tp4812
a(I22609
g346
tp4813
a(I22610
g346
tp4814
a(I22611
g4788
tp4815
a(I22612
g346
tp4816
a(I22614
g346
tp4817
a(I22615
g346
tp4818
a(I22617
g346
tp4819
a(I22618
g346
tp4820
a(I22628
g339
tp4821
a(I22630
g427
tp4822
a(I22633
g427
tp4823
a(I22643
g133
tp4824
a(I22651
g133
tp4825
a(I22652
g85
tp4826
a(I22653
g85
tp4827
a(I22654
g85
tp4828
a(I22655
g85
tp4829
a(I22656
g85
tp4830
a(I22657
S'3_half_diminished_seventh'
p4831
tp4832
a(I22658
g85
tp4833
a(I22660
g85
tp4834
a(I22661
g85
tp4835
a(I22668
g85
tp4836
a(I22670
g85
tp4837
a(I22684
g85
tp4838
a(I22704
g85
tp4839
a(I22705
g85
tp4840
a(I22706
g85
tp4841
a(I22709
g85
tp4842
a(I22710
g85
tp4843
a(I22712
g85
tp4844
a(I22713
g85
tp4845
a(I22751
g85
tp4846
a(I22752
S'2_dominant_minor_ninth'
p4847
tp4848
a(I22753
g87
tp4849
a(I22754
g85
tp4850
a(I22760
g85
tp4851
a(I22762
g85
tp4852
a(I22763
g85
tp4853
a(I22764
g85
tp4854
a(I22793
g85
tp4855
a(I22798
g465
tp4856
a(I22799
g465
tp4857
a(I22800
g465
tp4858
a(I22801
g465
tp4859
a(I22803
g219
tp4860
a(I22804
g465
tp4861
a(I22807
g465
tp4862
a(I22808
g465
tp4863
a(I22810
g465
tp4864
a(I22812
g465
tp4865
a(I22830
g465
tp4866
a(I22833
g85
tp4867
a(I22846
g85
tp4868
a(I22847
g133
tp4869
a(I22848
S'2_major_ninth'
p4870
tp4871
a(I22849
g133
tp4872
a(I22850
g133
tp4873
a(I22851
g133
tp4874
a(I22861
g133
tp4875
a(I22862
g133
tp4876
a(I22863
g133
tp4877
a(I22877
g133
tp4878
a(I22893
g133
tp4879
a(I22896
g133
tp4880
a(I22899
g4870
tp4881
a(I22900
g133
tp4882
a(I22901
g133
tp4883
a(I22902
g133
tp4884
a(I22904
g133
tp4885
a(I22912
g133
tp4886
a(I22913
g133
tp4887
a(I22941
g133
tp4888
a(I22943
g133
tp4889
a(I22944
g94
tp4890
a(I22945
g94
tp4891
a(I22946
g94
tp4892
a(I22947
g133
tp4893
a(I22954
g85
tp4894
a(I22955
g85
tp4895
a(I22956
g85
tp4896
a(I22957
g85
tp4897
a(I22991
g465
tp4898
a(I22992
g465
tp4899
a(I22993
g465
tp4900
a(I22994
g465
tp4901
a(I22995
g219
tp4902
a(I22996
g465
tp4903
a(I22998
g465
tp4904
a(I22999
g465
tp4905
a(I23000
g465
tp4906
a(I23001
g465
tp4907
a(I23003
g465
tp4908
a(I23015
g339
tp4909
a(I23016
g339
tp4910
a(I23018
g83
tp4911
a(I23036
g160
tp4912
a(I23037
g160
tp4913
a(I23039
g160
tp4914
a(I23040
S'1_minor_ninth'
p4915
tp4916
a(I23041
g4915
tp4917
a(I23042
g163
tp4918
a(I23043
g163
tp4919
a(I23044
g160
tp4920
a(I23053
g160
tp4921
a(I23054
g160
tp4922
a(I23055
g160
tp4923
a(I23060
g160
tp4924
a(I23088
S'3_dominant_seventh'
tp4925
a(I23089
g160
tp4926
a(I23090
g160
tp4927
a(I23091
g160
tp4928
a(I23093
g160
tp4929
a(I23094
g160
tp4930
a(I23097
g160
tp4931
a(I23134
g160
tp4932
a(I23135
g160
tp4933
a(I23136
g217
tp4934
a(I23137
g180
tp4935
a(I23138
g16
tp4936
a(I23139
g16
tp4937
a(I23140
g160
tp4938
a(I23142
g160
tp4939
a(I23145
g160
tp4940
a(I23146
g160
tp4941
a(I23148
g160
tp4942
a(I23175
g160
tp4943
a(I23182
g165
tp4944
a(I23183
g165
tp4945
a(I23184
g203
tp4946
a(I23185
g203
tp4947
a(I23187
g219
tp4948
a(I23188
g165
tp4949
a(I23191
g165
tp4950
a(I23192
g165
tp4951
a(I23193
g165
tp4952
a(I23194
g165
tp4953
a(I23197
g165
tp4954
a(I23207
g165
tp4955
a(I23228
g160
tp4956
a(I23230
g160
tp4957
a(I23231
g165
tp4958
a(I23232
g203
tp4959
a(I23234
g203
tp4960
a(I23235
g165
tp4961
a(I23242
g165
tp4962
a(I23243
g165
tp4963
a(I23244
g165
tp4964
a(I23246
g165
tp4965
a(I23261
g165
tp4966
a(I23271
g160
tp4967
a(I23278
g160
tp4968
a(I23309
g160
tp4969
a(I23315
g160
tp4970
a(I23326
g160
tp4971
a(I23327
g165
tp4972
a(I23328
g219
tp4973
a(I23329
g180
tp4974
a(I23330
g165
tp4975
a(I23334
g165
tp4976
a(I23336
g165
tp4977
a(I23337
g165
tp4978
a(I23339
g165
tp4979
a(I23355
g160
tp4980
a(I23364
g160
tp4981
a(I23374
g165
tp4982
a(I23375
g165
tp4983
a(I23376
g165
tp4984
a(I23377
g165
tp4985
a(I23378
g165
tp4986
a(I23379
g219
tp4987
a(I23380
g165
tp4988
a(I23382
g165
tp4989
a(I23384
g165
tp4990
a(I23385
g165
tp4991
a(I23386
g165
tp4992
a(I23387
g165
tp4993
a(I23408
g165
tp4994
a(I23409
g165
tp4995
a(I23417
g160
tp4996
a(I23421
g160
tp4997
a(I23422
g160
tp4998
a(I23423
g160
tp4999
a(I23424
g4915
tp5000
a(I23425
g163
tp5001
a(I23427
g160
tp5002
a(I23434
g160
tp5003
a(I23435
g160
tp5004
a(I23436
g160
tp5005
a(I23437
g160
tp5006
a(I23452
g160
tp5007
a(I23454
g160
tp5008
a(I23458
g160
tp5009
a(I23470
g160
tp5010
a(I23471
g160
tp5011
a(I23472
g160
tp5012
a(I23473
g160
tp5013
a(I23474
g160
tp5014
a(I23475
g160
tp5015
a(I23477
g160
tp5016
a(I23479
g160
tp5017
a(I23520
g180
tp5018
a(I23521
g16
tp5019
a(I23522
g160
tp5020
a(I23528
g160
tp5021
a(I23529
g160
tp5022
a(I23530
g160
tp5023
a(I23532
g160
tp5024
a(I23535
g160
tp5025
a(I23538
g160
tp5026
a(I23558
g160
tp5027
a(I23565
g163
tp5028
a(I23566
g163
tp5029
a(I23567
g163
tp5030
a(I23568
g163
tp5031
a(I23570
g4915
tp5032
a(I23571
g4915
tp5033
a(I23572
g163
tp5034
a(I23579
g163
tp5035
a(I23581
g163
tp5036
a(I23583
g163
tp5037
a(I23586
g163
tp5038
a(I23597
g163
tp5039
a(I23615
g163
tp5040
a(I23616
g203
tp5041
a(I23617
g203
tp5042
a(I23618
g203
tp5043
a(I23619
g203
tp5044
a(I23622
g203
tp5045
a(I23623
g203
tp5046
a(I23662
g203
tp5047
a(I23664
g2625
tp5048
a(I23665
g163
tp5049
a(I23666
g163
tp5050
a(I23667
g163
tp5051
a(I23668
g163
tp5052
a(I23672
g163
tp5053
a(I23675
g163
tp5054
a(I23677
g163
tp5055
a(I23678
g163
tp5056
a(I23690
g163
tp5057
a(I23692
g163
tp5058
a(I23700
g160
tp5059
a(I23709
g160
tp5060
a(I23710
g165
tp5061
a(I23711
g165
tp5062
a(I23712
g219
tp5063
a(I23713
g180
tp5064
a(I23714
g180
tp5065
a(I23715
g180
tp5066
a(I23716
g165
tp5067
a(I23719
g165
tp5068
a(I23721
g165
tp5069
a(I23723
g165
tp5070
a(I23752
g165
tp5071
a(I23759
g165
tp5072
a(I23760
g203
tp5073
a(I23761
g165
tp5074
a(I23762
g165
tp5075
a(I23763
g219
tp5076
a(I23764
g165
tp5077
a(I23766
g165
tp5078
a(I23767
g165
tp5079
a(I23769
g165
tp5080
a(I23771
g165
tp5081
a(I23772
g165
tp5082
a(I23776
g165
tp5083
a(I23786
g430
tp5084
a(I23787
g430
tp5085
a(I23790
g430
tp5086
a(I23791
g643
tp5087
a(I23794
g643
tp5088
a(I23803
g9
tp5089
a(I23805
g9
tp5090
a(I23806
g9
tp5091
a(I23807
g9
tp5092
a(I23808
g9
tp5093
a(I23810
g71
tp5094
a(I23811
g9
tp5095
a(I23812
g9
tp5096
a(I23813
g9
tp5097
a(I23818
g9
tp5098
a(I23821
g9
tp5099
a(I23840
g9
tp5100
a(I23856
g9
tp5101
a(I23857
g9
tp5102
a(I23858
g9
tp5103
a(I23859
g9
tp5104
a(I23861
g9
tp5105
a(I23862
g9
tp5106
a(I23865
g9
tp5107
a(I23902
g9
tp5108
a(I23903
g4766
tp5109
a(I23904
g4766
tp5110
a(I23905
g9
tp5111
a(I23906
g9
tp5112
a(I23909
g9
tp5113
a(I23910
g9
tp5114
a(I23912
g9
tp5115
a(I23913
g9
tp5116
a(I23916
g9
tp5117
a(I23937
g9
tp5118
a(I23950
g346
tp5119
a(I23951
g346
tp5120
a(I23952
g346
tp5121
a(I23953
g346
tp5122
a(I23954
g4788
tp5123
a(I23955
g4788
tp5124
a(I23956
g346
tp5125
a(I23961
g346
tp5126
a(I23962
g346
tp5127
a(I23963
g346
tp5128
a(I23965
g346
tp5129
a(I23974
g346
tp5130
a(I23976
g346
tp5131
a(I23998
g346
tp5132
a(I23999
g9
tp5133
a(I24000
g9
tp5134
a(I24001
g9
tp5135
a(I24002
g9
tp5136
a(I24010
g9
tp5137
a(I24012
g9
tp5138
a(I24013
g9
tp5139
a(I24033
g9
tp5140
a(I24048
g9
tp5141
a(I24050
g4766
tp5142
a(I24051
g9
tp5143
a(I24052
g9
tp5144
a(I24054
g9
tp5145
a(I24056
g9
tp5146
a(I24064
g9
tp5147
a(I24093
g71
tp5148
a(I24094
g71
tp5149
a(I24095
g71
tp5150
a(I24096
g4847
tp5151
a(I24097
g4847
tp5152
a(I24098
g71
tp5153
a(I24099
g71
tp5154
a(I24100
g71
tp5155
a(I24107
g71
tp5156
a(I24108
g71
tp5157
a(I24109
g71
tp5158
a(I24110
g71
tp5159
a(I24140
g71
tp5160
a(I24142
g424
tp5161
a(I24144
g424
tp5162
a(I24145
g424
tp5163
a(I24146
g424
tp5164
a(I24147
g424
tp5165
a(I24148
g424
tp5166
a(I24152
g424
tp5167
a(I24153
g424
tp5168
a(I24154
g424
tp5169
a(I24157
g427
tp5170
a(I24160
g430
tp5171
a(I24167
g430
tp5172
a(I24179
g133
tp5173
a(I24180
g430
tp5174
a(I24182
g430
tp5175
a(I24187
g430
tp5176
a(I24188
g133
tp5177
a(I24189
g133
tp5178
a(I24190
g133
tp5179
a(I24191
g133
tp5180
a(I24192
g133
tp5181
a(I24194
g4870
tp5182
a(I24195
g133
tp5183
a(I24196
g133
tp5184
a(I24197
g133
tp5185
a(I24201
g85
tp5186
a(I24204
g85
tp5187
a(I24207
g85
tp5188
a(I24228
g85
tp5189
a(I24240
g85
tp5190
a(I24241
g85
tp5191
a(I24242
g85
tp5192
a(I24243
g4831
tp5193
a(I24244
g85
tp5194
a(I24245
g85
tp5195
a(I24247
g85
tp5196
a(I24248
g85
tp5197
a(I24286
g85
tp5198
a(I24287
g4831
tp5199
a(I24288
g4847
tp5200
a(I24289
g87
tp5201
a(I24290
g85
tp5202
a(I24295
g85
tp5203
a(I24296
g85
tp5204
a(I24297
g85
tp5205
a(I24298
g85
tp5206
a(I24301
g85
tp5207
a(I24334
g465
tp5208
a(I24335
g465
tp5209
a(I24336
g465
tp5210
a(I24338
g219
tp5211
a(I24339
g465
tp5212
a(I24340
g465
tp5213
a(I24344
g465
tp5214
a(I24346
g465
tp5215
a(I24348
g465
tp5216
a(I24374
g85
tp5217
a(I24382
g163
tp5218
a(I24383
g4847
tp5219
a(I24384
g4847
tp5220
a(I24385
g163
tp5221
a(I24386
g163
tp5222
a(I24387
g163
tp5223
a(I24388
g163
tp5224
a(I24393
g163
tp5225
a(I24395
g163
tp5226
a(I24396
g163
tp5227
a(I24398
g163
tp5228
a(I24410
g85
tp5229
a(I24430
g163
tp5230
a(I24432
g163
tp5231
a(I24435
g163
tp5232
a(I24436
g163
tp5233
a(I24437
g163
tp5234
a(I24438
g163
tp5235
a(I24439
g163
tp5236
a(I24441
g163
tp5237
a(I24446
g163
tp5238
a(I24478
g163
tp5239
a(I24479
g163
tp5240
a(I24480
g4847
tp5241
a(I24481
g4847
tp5242
a(I24482
g1419
tp5243
a(I24483
g163
tp5244
a(I24487
g163
tp5245
a(I24489
g163
tp5246
a(I24491
g163
tp5247
a(I24492
g163
tp5248
a(I24494
g163
tp5249
a(I24526
g268
tp5250
a(I24528
g268
tp5251
a(I24529
g268
tp5252
a(I24530
g268
tp5253
a(I24531
g268
tp5254
a(I24532
g268
tp5255
a(I24535
g268
tp5256
a(I24537
g268
tp5257
a(I24538
g268
tp5258
a(I24539
g268
tp5259
a(I24549
g268
tp5260
a(I24550
g465
tp5261
a(I24551
g465
tp5262
a(I24554
g339
tp5263
a(I24556
g83
tp5264
a(I24568
g518
tp5265
a(I24571
g160
tp5266
a(I24573
g160
tp5267
a(I24575
g160
tp5268
a(I24576
g163
tp5269
a(I24578
g4915
tp5270
a(I24579
g160
tp5271
a(I24584
g160
tp5272
a(I24587
g160
tp5273
a(I24588
g160
tp5274
a(I24589
g160
tp5275
a(I24591
g160
tp5276
a(I24624
g160
tp5277
a(I24625
g160
tp5278
a(I24627
g160
tp5279
a(I24629
g160
tp5280
a(I24631
g160
tp5281
a(I24632
g160
tp5282
a(I24633
g160
tp5283
a(I24670
g160
tp5284
a(I24671
g160
tp5285
a(I24672
g180
tp5286
a(I24673
g16
tp5287
a(I24674
g160
tp5288
a(I24677
g160
tp5289
a(I24680
g160
tp5290
a(I24682
g160
tp5291
a(I24683
g160
tp5292
a(I24684
g160
tp5293
a(I24713
g160
tp5294
a(I24718
g165
tp5295
a(I24719
g165
tp5296
a(I24720
g203
tp5297
a(I24721
g203
tp5298
a(I24722
g219
tp5299
a(I24723
g219
tp5300
a(I24724
g165
tp5301
a(I24728
g165
tp5302
a(I24729
g165
tp5303
a(I24730
g165
tp5304
a(I24733
g165
tp5305
a(I24740
g165
tp5306
a(I24742
g165
tp5307
a(I24751
g165
tp5308
a(I24759
g160
tp5309
a(I24766
g160
tp5310
a(I24767
g219
tp5311
a(I24768
g165
tp5312
a(I24769
g165
tp5313
a(I24776
g165
tp5314
a(I24777
g165
tp5315
a(I24780
g165
tp5316
a(I24788
g165
tp5317
a(I24799
g165
tp5318
a(I24802
g165
tp5319
a(I24805
g160
tp5320
a(I24815
g160
tp5321
a(I24816
g163
tp5322
a(I24817
g160
tp5323
a(I24818
g217
tp5324
a(I24819
g160
tp5325
a(I24820
g160
tp5326
a(I24822
g160
tp5327
a(I24823
g160
tp5328
a(I24839
g160
tp5329
a(I24844
g160
tp5330
a(I24845
g160
tp5331
a(I24861
g160
tp5332
a(I24862
g165
tp5333
a(I24863
g165
tp5334
a(I24864
g219
tp5335
a(I24865
g180
tp5336
a(I24866
g180
tp5337
a(I24867
g180
tp5338
a(I24868
g165
tp5339
a(I24873
g165
tp5340
a(I24874
g165
tp5341
a(I24875
g165
tp5342
a(I24877
g165
tp5343
a(I24883
g165
tp5344
a(I24884
g165
tp5345
a(I24885
g165
tp5346
a(I24902
g165
tp5347
a(I24907
g165
tp5348
a(I24909
g165
tp5349
a(I24910
g165
tp5350
a(I24911
g165
tp5351
a(I24912
g203
tp5352
a(I24913
g203
tp5353
a(I24914
g165
tp5354
a(I24915
g219
tp5355
a(I24916
g165
tp5356
a(I24919
g165
tp5357
a(I24920
g165
tp5358
a(I24921
g165
tp5359
a(I24923
g165
tp5360
a(I24927
g165
tp5361
a(I24928
g165
tp5362
a(I24930
g165
tp5363
a(I24942
g165
tp5364
a(I24951
g165
tp5365
a(I24954
g160
tp5366
a(I24956
g16
tp5367
a(I24957
g16
tp5368
a(I24958
g160
tp5369
a(I24959
g160
tp5370
a(I24960
g160
tp5371
a(I24961
g16
tp5372
a(I24962
g16
tp5373
a(I24964
g160
tp5374
a(I24968
g160
tp5375
a(I24969
g160
tp5376
a(I24970
g160
tp5377
a(I24994
g619
tp5378
a(I24997
g619
tp5379
a(I24998
g619
tp5380
a(I24999
g619
tp5381
a(I25000
g219
tp5382
a(I25003
g219
tp5383
a(I25004
g219
tp5384
a(I25005
g219
tp5385
a(I25007
g180
tp5386
a(I25008
g266
tp5387
a(I25009
g160
tp5388
a(I25010
g160
tp5389
a(I25013
g1473
tp5390
a(I25015
g339
tp5391
a(I25017
g518
tp5392
a(I25018
g518
tp5393
a(I25022
g518
tp5394
a(I25026
g518
tp5395
a(I25051
g1919
tp5396
a(I25057
g1919
tp5397
a(I25152
g83
tp5398
a(I25153
g155
tp5399
a(I25154
g83
tp5400
a(I25199
g643
tp5401
a(I25244
g643
tp5402
a(I25245
g643
tp5403
a(I25249
g643
tp5404
a(I25250
g643
tp5405
a(I25295
g2
tp5406
a(I25318
g2
tp5407
a(I25330
g2
tp5408
a(I25339
g9
tp5409
a(I25343
g9
tp5410
a(I25344
g9
tp5411
a(I25345
g9
tp5412
a(I25346
g9
tp5413
a(I25347
g346
tp5414
a(I25348
g9
tp5415
a(I25354
g9
tp5416
a(I25356
g9
tp5417
a(I25359
g9
tp5418
a(I25396
g9
tp5419
a(I25397
g9
tp5420
a(I25423
g9
tp5421
a(I25440
g9
tp5422
a(I25441
g346
tp5423
a(I25442
g346
tp5424
a(I25443
g346
tp5425
a(I25445
g346
tp5426
a(I25448
g346
tp5427
a(I25449
g346
tp5428
a(I25451
g346
tp5429
a(I25452
g346
tp5430
a(I25463
g9
tp5431
a(I25487
g9
tp5432
a(I25488
g9
tp5433
a(I25489
g9
tp5434
a(I25490
g9
tp5435
a(I25491
g9
tp5436
a(I25492
g9
tp5437
a(I25496
g9
tp5438
a(I25498
g9
tp5439
a(I25499
g9
tp5440
a(I25500
g9
tp5441
a(I25534
g9
tp5442
a(I25535
g9
tp5443
a(I25536
g9
tp5444
a(I25537
g9
tp5445
a(I25538
g9
tp5446
a(I25543
g9
tp5447
a(I25545
g9
tp5448
a(I25546
g9
tp5449
a(I25547
g9
tp5450
a(I25548
g9
tp5451
a(I25554
g9
tp5452
a(I25584
g346
tp5453
a(I25587
g346
tp5454
a(I25588
g346
tp5455
a(I25607
g346
tp5456
a(I25628
g9
tp5457
a(I25631
g9
tp5458
a(I25632
g9
tp5459
a(I25633
g9
tp5460
a(I25634
g9
tp5461
a(I25640
g9
tp5462
a(I25641
g9
tp5463
a(I25642
g9
tp5464
a(I25644
g9
tp5465
a(I25645
g9
tp5466
a(I25678
g71
tp5467
a(I25680
g71
tp5468
a(I25681
g74
tp5469
a(I25682
g71
tp5470
a(I25683
g71
tp5471
a(I25687
g71
tp5472
a(I25688
g71
tp5473
a(I25689
g71
tp5474
a(I25692
g71
tp5475
a(I25702
g714
tp5476
a(I25703
g83
tp5477
a(I25723
g85
tp5478
a(I25727
g85
tp5479
a(I25728
g85
tp5480
a(I25729
g85
tp5481
a(I25730
g133
tp5482
a(I25731
g85
tp5483
a(I25738
g85
tp5484
a(I25739
g85
tp5485
a(I25740
g85
tp5486
a(I25742
g85
tp5487
a(I25780
g133
tp5488
a(I25781
g85
tp5489
a(I25807
g85
tp5490
a(I25823
g85
tp5491
a(I25824
g94
tp5492
a(I25825
g94
tp5493
a(I25826
g87
tp5494
a(I25827
g85
tp5495
a(I25830
g85
tp5496
a(I25832
g85
tp5497
a(I25833
g85
tp5498
a(I25835
g85
tp5499
a(I25837
g85
tp5500
a(I25871
g85
tp5501
a(I25872
g85
tp5502
a(I25873
g85
tp5503
a(I25875
g133
tp5504
a(I25876
g85
tp5505
a(I25880
g85
tp5506
a(I25883
g85
tp5507
a(I25884
g85
tp5508
a(I25885
g85
tp5509
a(I25918
g85
tp5510
a(I25919
g85
tp5511
a(I25920
g85
tp5512
a(I25921
g133
tp5513
a(I25922
g85
tp5514
a(I25923
g85
tp5515
a(I25924
g85
tp5516
a(I25930
g85
tp5517
a(I25931
g85
tp5518
a(I25933
g85
tp5519
a(I25962
g85
tp5520
a(I25968
g85
tp5521
a(I25970
g85
tp5522
a(I25971
g133
tp5523
a(I25972
g85
tp5524
a(I25973
g85
tp5525
a(I25974
g85
tp5526
a(I25975
g85
tp5527
a(I25989
g85
tp5528
a(I26010
g85
tp5529
a(I26015
g85
tp5530
a(I26016
g94
tp5531
a(I26017
g94
tp5532
a(I26018
g94
tp5533
a(I26019
g87
tp5534
a(I26020
g85
tp5535
a(I26025
g85
tp5536
a(I26026
g85
tp5537
a(I26027
g85
tp5538
a(I26029
g85
tp5539
a(I26033
g85
tp5540
a(I26058
g85
tp5541
a(I26064
g85
tp5542
a(I26065
g85
tp5543
a(I26066
g85
tp5544
a(I26068
g133
tp5545
a(I26069
g85
tp5546
a(I26071
g85
tp5547
a(I26072
g85
tp5548
a(I26073
g85
tp5549
a(I26075
g85
tp5550
a(I26087
g85
tp5551
a(I26088
g2
tp5552
a(I26107
g83
tp5553
a(I26108
g160
tp5554
a(I26111
g160
tp5555
a(I26112
g163
tp5556
a(I26113
g163
tp5557
a(I26114
g165
tp5558
a(I26115
g160
tp5559
a(I26125
g160
tp5560
a(I26126
g160
tp5561
a(I26158
g160
tp5562
a(I26160
g165
tp5563
a(I26164
g165
tp5564
a(I26165
g165
tp5565
a(I26184
g165
tp5566
a(I26185
g160
tp5567
a(I26203
g176
tp5568
a(I26207
g176
tp5569
a(I26208
g180
tp5570
a(I26209
g180
tp5571
a(I26210
g180
tp5572
a(I26211
g176
tp5573
a(I26213
g176
tp5574
a(I26215
g176
tp5575
a(I26216
g176
tp5576
a(I26217
g176
tp5577
a(I26219
g176
tp5578
a(I26227
g160
tp5579
a(I26255
g160
tp5580
a(I26256
g163
tp5581
a(I26257
g160
tp5582
a(I26259
g165
tp5583
a(I26260
g160
tp5584
a(I26264
g160
tp5585
a(I26267
g160
tp5586
a(I26268
g160
tp5587
a(I26270
g160
tp5588
a(I26303
g165
tp5589
a(I26304
g203
tp5590
a(I26305
g203
tp5591
a(I26306
g165
tp5592
a(I26311
g165
tp5593
a(I26314
g165
tp5594
a(I26315
g165
tp5595
a(I26316
g165
tp5596
a(I26328
g165
tp5597
a(I26347
g160
tp5598
a(I26350
g160
tp5599
a(I26356
g165
tp5600
a(I26357
g160
tp5601
a(I26379
g160
tp5602
a(I26385
g160
tp5603
a(I26397
g160
tp5604
a(I26398
g165
tp5605
a(I26399
g165
tp5606
a(I26400
g180
tp5607
a(I26401
g180
tp5608
a(I26402
g180
tp5609
a(I26403
g180
tp5610
a(I26404
g165
tp5611
a(I26408
g165
tp5612
a(I26410
g165
tp5613
a(I26412
g165
tp5614
a(I26413
g165
tp5615
a(I26415
g165
tp5616
a(I26421
g160
tp5617
a(I26446
g160
tp5618
a(I26448
g160
tp5619
a(I26449
g160
tp5620
a(I26450
g160
tp5621
a(I26451
g160
tp5622
a(I26452
g165
tp5623
a(I26453
g160
tp5624
a(I26454
g160
tp5625
a(I26456
g160
tp5626
a(I26458
g160
tp5627
a(I26493
g165
tp5628
a(I26494
g165
tp5629
a(I26495
g165
tp5630
a(I26496
g203
tp5631
a(I26497
g203
tp5632
a(I26498
g203
tp5633
a(I26499
g203
tp5634
a(I26500
g165
tp5635
a(I26506
g165
tp5636
a(I26508
g165
tp5637
a(I26510
g165
tp5638
a(I26543
g165
tp5639
a(I26545
g165
tp5640
a(I26546
g165
tp5641
a(I26548
g165
tp5642
a(I26549
g165
tp5643
a(I26551
g165
tp5644
a(I26552
g165
tp5645
a(I26591
g165
tp5646
a(I26592
g180
tp5647
a(I26593
g180
tp5648
a(I26594
g165
tp5649
a(I26599
g165
tp5650
a(I26601
g165
tp5651
a(I26602
g165
tp5652
a(I26604
g165
tp5653
a(I26616
g165
tp5654
a(I26619
g165
tp5655
a(I26622
g160
tp5656
a(I26637
g160
tp5657
a(I26638
g160
tp5658
a(I26639
g160
tp5659
a(I26640
g163
tp5660
a(I26643
g163
tp5661
a(I26644
g165
tp5662
a(I26645
g160
tp5663
a(I26648
g160
tp5664
a(I26649
g160
tp5665
a(I26652
g160
tp5666
a(I26669
g160
tp5667
a(I26670
g160
tp5668
a(I26686
g165
tp5669
a(I26687
g165
tp5670
a(I26688
g165
tp5671
a(I26689
g165
tp5672
a(I26690
g165
tp5673
a(I26699
g165
tp5674
a(I26700
g165
tp5675
a(I26701
g165
tp5676
a(I26702
g165
tp5677
a(I26722
g165
tp5678
a(I26727
g160
tp5679
a(I26734
g160
tp5680
a(I26735
g160
tp5681
a(I26736
g163
tp5682
a(I26737
g268
tp5683
a(I26738
g160
tp5684
a(I26752
g160
tp5685
a(I26758
g160
tp5686
a(I26777
g160
tp5687
a(I26781
g160
tp5688
a(I26783
g160
tp5689
a(I26784
g160
tp5690
a(I26785
g180
tp5691
a(I26786
g180
tp5692
a(I26787
g180
tp5693
a(I26788
g165
tp5694
a(I26794
g165
tp5695
a(I26795
g165
tp5696
a(I26796
g165
tp5697
a(I26798
g165
tp5698
a(I26807
g165
tp5699
a(I26832
g165
tp5700
a(I26833
g597
tp5701
a(I26834
g597
tp5702
a(I26835
g165
tp5703
a(I26839
g165
tp5704
a(I26840
g165
tp5705
a(I26842
g165
tp5706
a(I26843
g165
tp5707
a(I26847
g160
tp5708
a(I26852
g160
tp5709
a(I26853
g83
tp5710
a(I26855
g3344
tp5711
a(I26856
g1919
tp5712
a(I26866
g9
tp5713
a(I26875
g16
tp5714
a(I26877
g16
tp5715
a(I26879
g16
tp5716
a(I26880
g16
tp5717
a(I26882
g16
tp5718
a(I26883
g16
tp5719
a(I26884
g16
tp5720
a(I26885
g16
tp5721
a(I26886
g9
tp5722
a(I26889
g9
tp5723
a(I26890
g9
tp5724
a(I26891
g9
tp5725
a(I26892
g9
tp5726
a(I26927
g9
tp5727
a(I26929
g9
tp5728
a(I26930
g9
tp5729
a(I26932
g9
tp5730
a(I26933
g9
tp5731
a(I26935
g9
tp5732
a(I26936
g9
tp5733
a(I26937
g9
tp5734
a(I26963
g9
tp5735
a(I26975
g9
tp5736
a(I26976
g9
tp5737
a(I26977
g346
tp5738
a(I26978
g346
tp5739
a(I26979
g346
tp5740
a(I26982
g346
tp5741
a(I26985
g346
tp5742
a(I26986
g346
tp5743
a(I26988
g346
tp5744
a(I27003
g9
tp5745
a(I27007
g9
tp5746
a(I27023
g9
tp5747
a(I27024
g9
tp5748
a(I27025
g9
tp5749
a(I27026
g9
tp5750
a(I27027
g9
tp5751
a(I27028
g9
tp5752
a(I27029
g9
tp5753
a(I27031
g9
tp5754
a(I27033
g9
tp5755
a(I27036
g9
tp5756
a(I27037
g9
tp5757
a(I27070
g9
tp5758
a(I27071
g9
tp5759
a(I27072
g9
tp5760
a(I27073
g9
tp5761
a(I27074
g9
tp5762
a(I27075
g9
tp5763
a(I27084
g9
tp5764
a(I27085
g9
tp5765
a(I27088
g9
tp5766
a(I27100
g9
tp5767
a(I27108
g9
tp5768
a(I27111
g9
tp5769
a(I27116
g9
tp5770
a(I27117
g9
tp5771
a(I27118
g9
tp5772
a(I27120
g346
tp5773
a(I27121
g346
tp5774
a(I27122
g346
tp5775
a(I27123
g346
tp5776
a(I27124
g346
tp5777
a(I27128
g346
tp5778
a(I27129
g346
tp5779
a(I27131
g346
tp5780
a(I27141
g346
tp5781
a(I27165
g266
tp5782
a(I27166
g266
tp5783
a(I27167
g266
tp5784
a(I27168
g266
tp5785
a(I27170
g266
tp5786
a(I27171
g266
tp5787
a(I27172
g266
tp5788
a(I27177
g16
tp5789
a(I27180
g16
tp5790
a(I27181
g16
tp5791
a(I27191
g16
tp5792
a(I27213
g16
tp5793
a(I27215
g16
tp5794
a(I27216
g16
tp5795
a(I27217
g16
tp5796
a(I27218
g16
tp5797
a(I27219
g9
tp5798
a(I27220
g9
tp5799
a(I27221
g9
tp5800
a(I27224
g9
tp5801
a(I27226
g9
tp5802
a(I27228
g9
tp5803
a(I27236
g9
tp5804
a(I27238
g9
tp5805
a(I27239
g9
tp5806
a(I27259
g71
tp5807
a(I27260
g87
tp5808
a(I27263
g87
tp5809
a(I27264
g87
tp5810
a(I27266
g85
tp5811
a(I27267
g133
tp5812
a(I27268
g85
tp5813
a(I27276
g85
tp5814
a(I27279
g85
tp5815
a(I27280
g85
tp5816
a(I27281
g85
tp5817
a(I27311
g85
tp5818
a(I27313
g85
tp5819
a(I27315
g85
tp5820
a(I27316
g133
tp5821
a(I27317
g85
tp5822
a(I27318
g85
tp5823
a(I27321
g85
tp5824
a(I27322
g85
tp5825
a(I27359
g85
tp5826
a(I27360
g87
tp5827
a(I27361
g94
tp5828
a(I27362
g268
tp5829
a(I27363
g465
tp5830
a(I27365
g465
tp5831
a(I27370
g465
tp5832
a(I27372
g465
tp5833
a(I27374
g465
tp5834
a(I27384
g85
tp5835
a(I27407
g85
tp5836
a(I27408
g85
tp5837
a(I27409
g85
tp5838
a(I27410
g85
tp5839
a(I27411
g133
tp5840
a(I27412
g85
tp5841
a(I27417
g85
tp5842
a(I27418
g85
tp5843
a(I27419
g85
tp5844
a(I27420
g85
tp5845
a(I27454
g85
tp5846
a(I27455
g85
tp5847
a(I27456
g85
tp5848
a(I27457
g133
tp5849
a(I27458
g133
tp5850
a(I27459
g85
tp5851
a(I27460
g85
tp5852
a(I27468
g85
tp5853
a(I27470
g85
tp5854
a(I27473
g85
tp5855
a(I27504
g85
tp5856
a(I27507
g133
tp5857
a(I27508
g85
tp5858
a(I27520
g85
tp5859
a(I27525
g85
tp5860
a(I27526
g85
tp5861
a(I27538
g85
tp5862
a(I27551
g163
tp5863
a(I27552
g1419
tp5864
a(I27553
g180
tp5865
a(I27554
g268
tp5866
a(I27555
g268
tp5867
a(I27564
g268
tp5868
a(I27565
g268
tp5869
a(I27566
g268
tp5870
a(I27569
g268
tp5871
a(I27581
g268
tp5872
a(I27583
g163
tp5873
a(I27588
g163
tp5874
a(I27600
g268
tp5875
a(I27601
g268
tp5876
a(I27602
g268
tp5877
a(I27604
g268
tp5878
a(I27606
g268
tp5879
a(I27607
g268
tp5880
a(I27609
g268
tp5881
a(I27610
g268
tp5882
a(I27619
g176
tp5883
a(I27620
g1473
tp5884
a(I27630
g518
tp5885
a(I27642
g83
tp5886
a(I27643
g160
tp5887
a(I27645
g160
tp5888
a(I27647
g160
tp5889
a(I27648
g163
tp5890
a(I27650
g165
tp5891
a(I27651
g160
tp5892
a(I27652
g160
tp5893
a(I27660
g160
tp5894
a(I27662
g160
tp5895
a(I27664
g160
tp5896
a(I27696
g160
tp5897
a(I27697
g160
tp5898
a(I27698
g160
tp5899
a(I27700
g165
tp5900
a(I27701
g160
tp5901
a(I27702
g160
tp5902
a(I27703
g160
tp5903
a(I27705
g160
tp5904
a(I27738
g176
tp5905
a(I27742
g176
tp5906
a(I27743
g176
tp5907
a(I27744
g180
tp5908
a(I27745
g180
tp5909
a(I27747
g180
tp5910
a(I27748
g176
tp5911
a(I27750
g176
tp5912
a(I27751
g176
tp5913
a(I27752
g176
tp5914
a(I27753
g176
tp5915
a(I27755
g176
tp5916
a(I27762
g160
tp5917
a(I27791
g160
tp5918
a(I27792
g163
tp5919
a(I27793
g163
tp5920
a(I27794
g160
tp5921
a(I27796
g165
tp5922
a(I27797
g160
tp5923
a(I27802
g160
tp5924
a(I27803
g160
tp5925
a(I27804
g160
tp5926
a(I27807
g160
tp5927
a(I27809
g160
tp5928
a(I27838
g160
tp5929
a(I27839
g165
tp5930
a(I27840
g203
tp5931
a(I27841
g203
tp5932
a(I27842
g203
tp5933
a(I27843
g203
tp5934
a(I27844
g165
tp5935
a(I27849
g165
tp5936
a(I27850
g165
tp5937
a(I27852
g165
tp5938
a(I27853
g165
tp5939
a(I27874
g165
tp5940
a(I27880
g160
tp5941
a(I27885
g160
tp5942
a(I27888
g160
tp5943
a(I27889
g160
tp5944
a(I27891
g160
tp5945
a(I27892
g165
tp5946
a(I27893
g160
tp5947
a(I27894
g160
tp5948
a(I27895
g160
tp5949
a(I27896
g160
tp5950
a(I27900
g160
tp5951
a(I27917
g160
tp5952
a(I27918
g160
tp5953
a(I27934
g165
tp5954
a(I27935
g165
tp5955
a(I27936
g165
tp5956
a(I27937
g180
tp5957
a(I27938
g180
tp5958
a(I27939
g180
tp5959
a(I27940
g165
tp5960
a(I27944
g165
tp5961
a(I27946
g165
tp5962
a(I27948
g165
tp5963
a(I27957
g165
tp5964
a(I27968
g160
tp5965
a(I27982
g160
tp5966
a(I27984
g160
tp5967
a(I27985
g160
tp5968
a(I27986
g160
tp5969
a(I27987
g160
tp5970
a(I27988
g165
tp5971
a(I27989
g160
tp5972
a(I27990
g160
tp5973
a(I27991
g160
tp5974
a(I27993
g160
tp5975
a(I27995
g160
tp5976
a(I28006
g160
tp5977
a(I28013
g160
tp5978
a(I28017
g160
tp5979
a(I28019
g160
tp5980
a(I28029
g165
tp5981
a(I28031
g165
tp5982
a(I28032
g203
tp5983
a(I28034
g165
tp5984
a(I28035
g165
tp5985
a(I28036
g165
tp5986
a(I28042
g165
tp5987
a(I28045
g165
tp5988
a(I28048
g165
tp5989
a(I28078
g165
tp5990
a(I28079
g165
tp5991
a(I28080
g165
tp5992
a(I28081
g165
tp5993
a(I28082
g165
tp5994
a(I28083
g165
tp5995
a(I28084
g165
tp5996
a(I28085
g165
tp5997
a(I28086
g165
tp5998
a(I28087
g165
tp5999
a(I28089
g165
tp6000
a(I28090
g165
tp6001
a(I28127
g165
tp6002
a(I28128
g180
tp6003
a(I28129
g180
tp6004
a(I28130
g180
tp6005
a(I28131
g165
tp6006
a(I28133
g165
tp6007
a(I28135
g165
tp6008
a(I28137
g165
tp6009
a(I28138
g165
tp6010
a(I28139
g165
tp6011
a(I28147
g165
tp6012
a(I28151
g165
tp6013
a(I28161
g165
tp6014
a(I28168
g160
tp6015
a(I28173
g160
tp6016
a(I28174
g160
tp6017
a(I28175
g160
tp6018
a(I28176
g163
tp6019
a(I28178
g163
tp6020
a(I28179
g160
tp6021
a(I28180
g165
tp6022
a(I28181
g160
tp6023
a(I28184
g160
tp6024
a(I28185
g160
tp6025
a(I28186
g160
tp6026
a(I28188
g160
tp6027
a(I28215
g160
tp6028
a(I28223
g160
tp6029
a(I28224
g203
tp6030
a(I28225
g266
tp6031
a(I28226
g266
tp6032
a(I28227
g16
tp6033
a(I28235
g16
tp6034
a(I28237
g16
tp6035
a(I28238
g16
tp6036
a(I28240
g16
tp6037
a(I28271
g16
tp6038
a(I28272
g16
tp6039
a(I28273
g16
tp6040
a(I28274
g16
tp6041
a(I28275
g180
tp6042
a(I28276
g16
tp6043
a(I28278
g16
tp6044
a(I28279
g16
tp6045
a(I28280
g16
tp6046
a(I28281
g16
tp6047
a(I28293
g16
tp6048
a(I28302
g160
tp6049
a(I28317
g165
tp6050
a(I28319
g165
tp6051
a(I28320
g180
tp6052
a(I28321
g180
tp6053
a(I28323
g180
tp6054
a(I28324
g165
tp6055
a(I28328
g165
tp6056
a(I28332
g165
tp6057
a(I28333
g165
tp6058
a(I28335
g165
tp6059
a(I28336
g165
tp6060
a(I28355
g165
tp6061
a(I28366
g165
tp6062
a(I28367
g597
tp6063
a(I28368
g203
tp6064
a(I28370
g597
tp6065
a(I28371
g597
tp6066
a(I28372
g597
tp6067
a(I28373
g597
tp6068
a(I28375
g597
tp6069
a(I28376
g597
tp6070
a(I28378
g597
tp6071
a(I28379
g597
tp6072
a(I28383
g597
tp6073
a(I28387
g339
tp6074
a(I28388
g339
tp6075
a(I28391
g339
tp6076
a(I28407
g339
tp6077
a(I28412
g346
tp6078
a(I28413
g346
tp6079
a(I28414
g346
tp6080
a(I28415
g346
tp6081
a(I28416
g346
tp6082
a(I28417
g346
tp6083
a(I28418
g16
tp6084
a(I28419
g9
tp6085
a(I28420
g9
tp6086
a(I28421
g9
tp6087
a(I28426
g9
tp6088
a(I28429
g9
tp6089
a(I28464
g9
tp6090
a(I28465
g9
tp6091
a(I28467
g9
tp6092
a(I28468
g9
tp6093
a(I28469
g9
tp6094
a(I28470
g9
tp6095
a(I28472
g9
tp6096
a(I28473
g9
tp6097
a(I28476
g9
tp6098
a(I28493
g9
tp6099
a(I28511
g9
tp6100
a(I28512
g9
tp6101
a(I28513
g346
tp6102
a(I28514
g346
tp6103
a(I28515
g346
tp6104
a(I28517
g346
tp6105
a(I28524
g346
tp6106
a(I28527
g346
tp6107
a(I28528
g346
tp6108
a(I28544
g9
tp6109
a(I28559
g9
tp6110
a(I28560
g9
tp6111
a(I28561
g9
tp6112
a(I28562
g9
tp6113
a(I28563
g9
tp6114
a(I28564
g9
tp6115
a(I28572
g9
tp6116
a(I28573
g9
tp6117
a(I28607
g9
tp6118
a(I28608
g9
tp6119
a(I28609
g9
tp6120
a(I28610
g9
tp6121
a(I28611
g9
tp6122
a(I28620
g9
tp6123
a(I28622
g9
tp6124
a(I28623
g9
tp6125
a(I28638
g9
tp6126
a(I28655
g9
tp6127
a(I28656
g9
tp6128
a(I28658
g9
tp6129
a(I28659
g9
tp6130
a(I28660
g9
tp6131
a(I28662
g9
tp6132
a(I28664
g9
tp6133
a(I28665
g9
tp6134
a(I28703
g9
tp6135
a(I28704
g9
tp6136
a(I28705
g346
tp6137
a(I28706
g346
tp6138
a(I28707
g346
tp6139
a(I28714
g346
tp6140
a(I28715
g346
tp6141
a(I28716
g346
tp6142
a(I28718
g346
tp6143
a(I28720
g346
tp6144
a(I28731
g9
tp6145
a(I28750
g9
tp6146
a(I28751
g9
tp6147
a(I28752
g9
tp6148
a(I28753
g9
tp6149
a(I28754
g9
tp6150
a(I28755
g9
tp6151
a(I28756
g9
tp6152
a(I28757
g9
tp6153
a(I28762
g9
tp6154
a(I28764
g9
tp6155
a(I28775
g9
tp6156
a(I28777
g9
tp6157
a(I28778
g4
tp6158
a(I28786
g2
tp6159
a(I28795
g85
tp6160
a(I28799
g85
tp6161
a(I28800
g85
tp6162
a(I28802
g133
tp6163
a(I28803
g85
tp6164
a(I28804
g85
tp6165
a(I28811
g85
tp6166
a(I28812
g85
tp6167
a(I28814
g85
tp6168
a(I28815
g85
tp6169
a(I28822
g85
tp6170
a(I28848
g163
tp6171
a(I28849
g163
tp6172
a(I28850
g163
tp6173
a(I28851
g163
tp6174
a(I28852
g94
tp6175
a(I28853
g163
tp6176
a(I28855
g163
tp6177
a(I28856
g163
tp6178
a(I28858
g163
tp6179
a(I28895
g163
tp6180
a(I28896
g94
tp6181
a(I28897
g94
tp6182
a(I28898
g1419
tp6183
a(I28899
g163
tp6184
a(I28904
g163
tp6185
a(I28905
g163
tp6186
a(I28907
g163
tp6187
a(I28908
g163
tp6188
a(I28943
g163
tp6189
a(I28944
g163
tp6190
a(I28945
g163
tp6191
a(I28946
g163
tp6192
a(I28947
g94
tp6193
a(I28948
g163
tp6194
a(I28952
g163
tp6195
a(I28954
g163
tp6196
a(I28956
g163
tp6197
a(I28958
g163
tp6198
a(I28990
g163
tp6199
a(I28991
g163
tp6200
a(I28992
g163
tp6201
a(I28993
g94
tp6202
a(I28994
g163
tp6203
a(I28995
g163
tp6204
a(I29003
g163
tp6205
a(I29005
g163
tp6206
a(I29007
g163
tp6207
a(I29019
g85
tp6208
a(I29040
g85
tp6209
a(I29042
g85
tp6210
a(I29043
g133
tp6211
a(I29044
g85
tp6212
a(I29046
g85
tp6213
a(I29047
g85
tp6214
a(I29048
g85
tp6215
a(I29052
g85
tp6216
a(I29071
g85
tp6217
a(I29072
g85
tp6218
a(I29079
g85
tp6219
a(I29087
g85
tp6220
a(I29088
g94
tp6221
a(I29089
g94
tp6222
a(I29090
g87
tp6223
a(I29091
g85
tp6224
a(I29099
g85
tp6225
a(I29100
g85
tp6226
a(I29101
g85
tp6227
a(I29102
g85
tp6228
a(I29107
g85
tp6229
a(I29135
g85
tp6230
a(I29136
g85
tp6231
a(I29137
g792
tp6232
a(I29138
g85
tp6233
a(I29139
g85
tp6234
a(I29143
g85
tp6235
a(I29144
g85
tp6236
a(I29145
g85
tp6237
a(I29146
g85
tp6238
a(I29154
g85
tp6239
a(I29158
g2
tp6240
a(I29179
g339
tp6241
a(I29180
g160
tp6242
a(I29181
g160
tp6243
a(I29183
g160
tp6244
a(I29184
g163
tp6245
a(I29185
g163
tp6246
a(I29186
g203
tp6247
a(I29187
g160
tp6248
a(I29188
g160
tp6249
a(I29195
g160
tp6250
a(I29196
g160
tp6251
a(I29198
g160
tp6252
a(I29210
g160
tp6253
a(I29232
g160
tp6254
a(I29233
g160
tp6255
a(I29235
g160
tp6256
a(I29236
g165
tp6257
a(I29237
g160
tp6258
a(I29238
g160
tp6259
a(I29240
g160
tp6260
a(I29242
g160
tp6261
a(I29275
g160
tp6262
a(I29278
g160
tp6263
a(I29279
g160
tp6264
a(I29280
g16
tp6265
a(I29281
g180
tp6266
a(I29282
g180
tp6267
a(I29283
g16
tp6268
a(I29284
g160
tp6269
a(I29286
g160
tp6270
a(I29291
g160
tp6271
a(I29292
g160
tp6272
a(I29293
g160
tp6273
a(I29294
g160
tp6274
a(I29306
g160
tp6275
a(I29327
g160
tp6276
a(I29328
g163
tp6277
a(I29329
g163
tp6278
a(I29330
g163
tp6279
a(I29331
g160
tp6280
a(I29332
g165
tp6281
a(I29333
g160
tp6282
a(I29336
g160
tp6283
a(I29337
g160
tp6284
a(I29338
g160
tp6285
a(I29341
g160
tp6286
a(I29345
g160
tp6287
a(I29375
g165
tp6288
a(I29376
g203
tp6289
a(I29377
g203
tp6290
a(I29378
g203
tp6291
a(I29379
g165
tp6292
a(I29386
g165
tp6293
a(I29388
g165
tp6294
a(I29406
g165
tp6295
a(I29417
g160
tp6296
a(I29422
g160
tp6297
a(I29423
g160
tp6298
a(I29428
g165
tp6299
a(I29429
g160
tp6300
a(I29442
g160
tp6301
a(I29449
g160
tp6302
a(I29454
g160
tp6303
a(I29470
g165
tp6304
a(I29471
g165
tp6305
a(I29472
g180
tp6306
a(I29473
g180
tp6307
a(I29474
g180
tp6308
a(I29475
g165
tp6309
a(I29476
g165
tp6310
a(I29482
g165
tp6311
a(I29484
g165
tp6312
a(I29486
g165
tp6313
a(I29492
g165
tp6314
a(I29497
g160
tp6315
a(I29500
g160
tp6316
a(I29518
g619
tp6317
a(I29519
g619
tp6318
a(I29520
g219
tp6319
a(I29521
g165
tp6320
a(I29522
g165
tp6321
a(I29523
g165
tp6322
a(I29524
g165
tp6323
a(I29525
g165
tp6324
a(I29527
g165
tp6325
a(I29528
g165
tp6326
a(I29530
g165
tp6327
a(I29531
g165
tp6328
a(I29559
g165
tp6329
a(I29565
g165
tp6330
a(I29567
g165
tp6331
a(I29568
g203
tp6332
a(I29569
g203
tp6333
a(I29570
g203
tp6334
a(I29571
g203
tp6335
a(I29572
g165
tp6336
a(I29578
g165
tp6337
a(I29579
g165
tp6338
a(I29580
g165
tp6339
a(I29591
g165
tp6340
a(I29595
g165
tp6341
a(I29600
g160
tp6342
a(I29615
g160
tp6343
a(I29616
g160
tp6344
a(I29620
g165
tp6345
a(I29621
g160
tp6346
a(I29664
g180
tp6347
a(I29665
g16
tp6348
a(I29666
g160
tp6349
a(I29670
g160
tp6350
a(I29671
g160
tp6351
a(I29673
g160
tp6352
a(I29674
g160
tp6353
a(I29675
g160
tp6354
a(I29710
g160
tp6355
a(I29711
g160
tp6356
a(I29712
g163
tp6357
a(I29713
g163
tp6358
a(I29714
g160
tp6359
a(I29716
g165
tp6360
a(I29717
g160
tp6361
a(I29724
g160
tp6362
a(I29725
g160
tp6363
a(I29726
g160
tp6364
a(I29727
g160
tp6365
a(I29728
g160
tp6366
a(I29732
g160
tp6367
a(I29745
g160
tp6368
a(I29756
g160
tp6369
a(I29757
g163
tp6370
a(I29758
g163
tp6371
a(I29759
g163
tp6372
a(I29760
g203
tp6373
a(I29761
g163
tp6374
a(I29763
g163
tp6375
a(I29764
g163
tp6376
a(I29803
g163
tp6377
a(I29807
g203
tp6378
a(I29808
g203
tp6379
a(I29810
g203
tp6380
a(I29811
g203
tp6381
a(I29812
g203
tp6382
a(I29817
g203
tp6383
a(I29819
g203
tp6384
a(I29821
g203
tp6385
a(I29843
g203
tp6386
a(I29851
g203
tp6387
a(I29853
g203
tp6388
a(I29855
g203
tp6389
a(I29856
g203
tp6390
a(I29857
g180
tp6391
a(I29858
g180
tp6392
a(I29859
g180
tp6393
a(I29860
g203
tp6394
a(I29861
g165
tp6395
a(I29863
g165
tp6396
a(I29865
g165
tp6397
a(I29867
g160
tp6398
a(I29889
g160
tp6399
a(I29892
g160
tp6400
a(I29903
g160
tp6401
a(I29904
g163
tp6402
a(I29905
g163
tp6403
a(I29906
g163
tp6404
a(I29907
g163
tp6405
a(I29908
g203
tp6406
a(I29909
g163
tp6407
a(I29911
g163
tp6408
a(I29913
g163
tp6409
a(I29914
g163
tp6410
a(I29917
g163
tp6411
a(I29926
g339
tp6412
a(I29929
g339
tp6413
a(I29947
g266
tp6414
a(I29948
g16
tp6415
a(I29949
g16
tp6416
a(I29951
g16
tp6417
a(I29952
g16
tp6418
a(I29953
g16
tp6419
a(I29954
g16
tp6420
a(I29955
g16
tp6421
a(I29956
g16
tp6422
a(I29957
g9
tp6423
a(I29961
g9
tp6424
a(I29962
g9
tp6425
a(I29964
g9
tp6426
a(I29999
g9
tp6427
a(I30001
g9
tp6428
a(I30002
g9
tp6429
a(I30003
g9
tp6430
a(I30004
g9
tp6431
a(I30005
g9
tp6432
a(I30006
g9
tp6433
a(I30007
g9
tp6434
a(I30008
g9
tp6435
a(I30010
g9
tp6436
a(I30048
g9
tp6437
a(I30050
g346
tp6438
a(I30051
g9
tp6439
a(I30054
g9
tp6440
a(I30055
g9
tp6441
a(I30056
g9
tp6442
a(I30058
g9
tp6443
a(I30059
g9
tp6444
a(I30082
g9
tp6445
a(I30085
g9
tp6446
a(I30095
g9
tp6447
a(I30096
g9
tp6448
a(I30097
g9
tp6449
a(I30099
g9
tp6450
a(I30100
g9
tp6451
a(I30104
g9
tp6452
a(I30106
g9
tp6453
a(I30107
g9
tp6454
a(I30108
g9
tp6455
a(I30142
g9
tp6456
a(I30143
g9
tp6457
a(I30144
g9
tp6458
a(I30145
g9
tp6459
a(I30146
g9
tp6460
a(I30147
g9
tp6461
a(I30153
g9
tp6462
a(I30155
g9
tp6463
a(I30156
g9
tp6464
a(I30180
g9
tp6465
a(I30192
g9
tp6466
a(I30193
g346
tp6467
a(I30194
g9
tp6468
a(I30195
g9
tp6469
a(I30196
g9
tp6470
a(I30198
g9
tp6471
a(I30199
g9
tp6472
a(I30200
g9
tp6473
a(I30202
g9
tp6474
a(I30239
g9
tp6475
a(I30240
g9
tp6476
a(I30241
g9
tp6477
a(I30242
g9
tp6478
a(I30243
g9
tp6479
a(I30248
g9
tp6480
a(I30252
g9
tp6481
a(I30254
g9
tp6482
a(I30288
g9
tp6483
a(I30289
g9
tp6484
a(I30290
g9
tp6485
a(I30291
g9
tp6486
a(I30292
g9
tp6487
a(I30293
g9
tp6488
a(I30294
g9
tp6489
a(I30296
g9
tp6490
a(I30297
g9
tp6491
a(I30300
g9
tp6492
a(I30307
g9
tp6493
a(I30308
g9
tp6494
a(I30312
g9
tp6495
a(I30314
g9
tp6496
a(I30322
g4
tp6497
a(I30323
g2
tp6498
a(I30325
g2
tp6499
a(I30332
g85
tp6500
a(I30333
g85
tp6501
a(I30335
g85
tp6502
a(I30336
g85
tp6503
a(I30338
g133
tp6504
a(I30339
g85
tp6505
a(I30340
g85
tp6506
a(I30349
g85
tp6507
a(I30350
g85
tp6508
a(I30351
g85
tp6509
a(I30383
g85
tp6510
a(I30385
g85
tp6511
a(I30386
g85
tp6512
a(I30387
g85
tp6513
a(I30388
g133
tp6514
a(I30389
g85
tp6515
a(I30391
g85
tp6516
a(I30393
g85
tp6517
a(I30395
g85
tp6518
a(I30431
g85
tp6519
a(I30432
g94
tp6520
a(I30433
g87
tp6521
a(I30434
g87
tp6522
a(I30435
g85
tp6523
a(I30441
g85
tp6524
a(I30442
g85
tp6525
a(I30443
g85
tp6526
a(I30445
g85
tp6527
a(I30479
g85
tp6528
a(I30480
g85
tp6529
a(I30481
g85
tp6530
a(I30482
g85
tp6531
a(I30483
g133
tp6532
a(I30484
g85
tp6533
a(I30489
g85
tp6534
a(I30490
g85
tp6535
a(I30491
g85
tp6536
a(I30492
g85
tp6537
a(I30526
g85
tp6538
a(I30527
g85
tp6539
a(I30528
g133
tp6540
a(I30529
g133
tp6541
a(I30530
g85
tp6542
a(I30539
g85
tp6543
a(I30541
g85
tp6544
a(I30542
g85
tp6545
a(I30543
g85
tp6546
a(I30576
g85
tp6547
a(I30578
g85
tp6548
a(I30579
g133
tp6549
a(I30580
g85
tp6550
a(I30582
g85
tp6551
a(I30584
g85
tp6552
a(I30585
g85
tp6553
a(I30607
g85
tp6554
a(I30608
g85
tp6555
a(I30623
g163
tp6556
a(I30624
g94
tp6557
a(I30625
g268
tp6558
a(I30626
g268
tp6559
a(I30627
g268
tp6560
a(I30635
g268
tp6561
a(I30639
g268
tp6562
a(I30640
g268
tp6563
a(I30646
g268
tp6564
a(I30654
g163
tp6565
a(I30672
g268
tp6566
a(I30673
g268
tp6567
a(I30674
g268
tp6568
a(I30675
g268
tp6569
a(I30676
g268
tp6570
a(I30677
g268
tp6571
a(I30678
g268
tp6572
a(I30680
g268
tp6573
a(I30681
g268
tp6574
a(I30691
g163
tp6575
a(I30692
g163
tp6576
a(I30695
g160
tp6577
a(I30696
g83
tp6578
a(I30711
g83
tp6579
a(I30715
g160
tp6580
a(I30717
g160
tp6581
a(I30718
g160
tp6582
a(I30719
g160
tp6583
a(I30720
g163
tp6584
a(I30721
g203
tp6585
a(I30722
g203
tp6586
a(I30723
g203
tp6587
a(I30724
g160
tp6588
a(I30733
g160
tp6589
a(I30734
g160
tp6590
a(I30735
g160
tp6591
a(I30766
g160
tp6592
a(I30767
g160
tp6593
a(I30769
g160
tp6594
a(I30770
g160
tp6595
a(I30771
g160
tp6596
a(I30772
g165
tp6597
a(I30773
g160
tp6598
a(I30775
g160
tp6599
a(I30776
g160
tp6600
a(I30778
g160
tp6601
a(I30780
g160
tp6602
a(I30815
g160
tp6603
a(I30816
g16
tp6604
a(I30817
g180
tp6605
a(I30819
g16
tp6606
a(I30820
g160
tp6607
a(I30825
g160
tp6608
a(I30826
g160
tp6609
a(I30827
g160
tp6610
a(I30829
g160
tp6611
a(I30833
g160
tp6612
a(I30836
g160
tp6613
a(I30863
g160
tp6614
a(I30864
g163
tp6615
a(I30865
g160
tp6616
a(I30867
g165
tp6617
a(I30868
g160
tp6618
a(I30879
g160
tp6619
a(I30881
g160
tp6620
a(I30882
g160
tp6621
a(I30887
g160
tp6622
a(I30893
g160
tp6623
a(I30910
g160
tp6624
a(I30911
g165
tp6625
a(I30912
g165
tp6626
a(I30913
g165
tp6627
a(I30914
g165
tp6628
a(I30915
g165
tp6629
a(I30916
g165
tp6630
a(I30917
g165
tp6631
a(I30918
g165
tp6632
a(I30921
g165
tp6633
a(I30935
g165
tp6634
a(I30958
g165
tp6635
a(I30959
g165
tp6636
a(I30960
g203
tp6637
a(I30962
g203
tp6638
a(I30963
g203
tp6639
a(I30964
g160
tp6640
a(I30965
g160
tp6641
a(I30971
g160
tp6642
a(I30973
g160
tp6643
a(I30974
g160
tp6644
a(I30980
g160
tp6645
a(I30986
g160
tp6646
a(I30988
g160
tp6647
a(I30991
g160
tp6648
a(I31005
g165
tp6649
a(I31007
g165
tp6650
a(I31008
g165
tp6651
a(I31009
g180
tp6652
a(I31010
g180
tp6653
a(I31011
g180
tp6654
a(I31012
g165
tp6655
a(I31014
g165
tp6656
a(I31017
g165
tp6657
a(I31019
g165
tp6658
a(I31020
g165
tp6659
a(I31021
g165
tp6660
a(I31051
g165
tp6661
a(I31053
g165
tp6662
a(I31055
g165
tp6663
a(I31056
g203
tp6664
a(I31057
g203
tp6665
a(I31058
g203
tp6666
a(I31059
g203
tp6667
a(I31060
g163
tp6668
a(I31061
g160
tp6669
a(I31062
g160
tp6670
a(I31063
g160
tp6671
a(I31069
g160
tp6672
a(I31073
g160
tp6673
a(I31085
g160
tp6674
a(I31100
g16
tp6675
a(I31101
g160
tp6676
a(I31102
g160
tp6677
a(I31103
g160
tp6678
a(I31104
g16
tp6679
a(I31107
g16
tp6680
a(I31108
g160
tp6681
a(I31116
g160
tp6682
a(I31117
g160
tp6683
a(I31120
g160
tp6684
a(I31139
g160
tp6685
a(I31141
g160
tp6686
a(I31142
g1473
tp6687
a(I31148
g1473
tp6688
a(I31149
g518
tp6689
a(I31153
g518
tp6690
a(I31195
g1919
tp6691
a(I31201
g1919
tp6692
a(I31296
g83
tp6693
a(I31392
g643
tp6694
a(I31393
g643
tp6695
a(I31394
g643
tp6696
a(I31483
g4
tp6697
a(I31484
g9
tp6698
a(I31485
g9
tp6699
a(I31487
g9
tp6700
a(I31488
g346
tp6701
a(I31489
g346
tp6702
a(I31490
g346
tp6703
a(I31491
g9
tp6704
a(I31492
g9
tp6705
a(I31493
g9
tp6706
a(I31494
g9
tp6707
a(I31499
g9
tp6708
a(I31500
g9
tp6709
a(I31502
g9
tp6710
a(I31536
g9
tp6711
a(I31537
g9
tp6712
a(I31538
g9
tp6713
a(I31539
g9
tp6714
a(I31540
g9
tp6715
a(I31542
g9
tp6716
a(I31543
g9
tp6717
a(I31544
g9
tp6718
a(I31575
g9
tp6719
a(I31582
g9
tp6720
a(I31583
g9
tp6721
a(I31584
g9
tp6722
a(I31585
g346
tp6723
a(I31586
g346
tp6724
a(I31587
g346
tp6725
a(I31589
g346
tp6726
a(I31593
g346
tp6727
a(I31595
g346
tp6728
a(I31596
g346
tp6729
a(I31597
g346
tp6730
a(I31605
g9
tp6731
a(I31609
g9
tp6732
a(I31617
g9
tp6733
a(I31630
g9
tp6734
a(I31631
g9
tp6735
a(I31632
g9
tp6736
a(I31633
g9
tp6737
a(I31634
g9
tp6738
a(I31635
g9
tp6739
a(I31636
g9
tp6740
a(I31640
g9
tp6741
a(I31642
g9
tp6742
a(I31644
g9
tp6743
a(I31646
g9
tp6744
a(I31666
g9
tp6745
a(I31667
g9
tp6746
a(I31677
g346
tp6747
a(I31678
g346
tp6748
a(I31679
g346
tp6749
a(I31680
g346
tp6750
a(I31681
g346
tp6751
a(I31682
g346
tp6752
a(I31683
g346
tp6753
a(I31688
g346
tp6754
a(I31689
g346
tp6755
a(I31690
g346
tp6756
a(I31691
g346
tp6757
a(I31706
g346
tp6758
a(I31710
g346
tp6759
a(I31727
g346
tp6760
a(I31728
g346
tp6761
a(I31731
g346
tp6762
a(I31732
g346
tp6763
a(I31733
g346
tp6764
a(I31734
g346
tp6765
a(I31735
g346
tp6766
a(I31736
g346
tp6767
a(I31738
g346
tp6768
a(I31742
g346
tp6769
a(I31756
g346
tp6770
a(I31775
g346
tp6771
a(I31776
g346
tp6772
a(I31777
g346
tp6773
a(I31778
g346
tp6774
a(I31779
g346
tp6775
a(I31787
g346
tp6776
a(I31788
g346
tp6777
a(I31791
g346
tp6778
a(I31792
g346
tp6779
a(I31796
g346
tp6780
a(I31824
g346
tp6781
a(I31825
g346
tp6782
a(I31826
g346
tp6783
a(I31828
g346
tp6784
a(I31829
g346
tp6785
a(I31831
g346
tp6786
a(I31832
g346
tp6787
a(I31840
g346
tp6788
a(I31846
g346
tp6789
a(I31847
g346
tp6790
a(I31849
g339
tp6791
a(I31850
g339
tp6792
a(I31853
g2
tp6793
a(I31868
g133
tp6794
a(I31869
g133
tp6795
a(I31870
g133
tp6796
a(I31871
g85
tp6797
a(I31872
g85
tp6798
a(I31873
g85
tp6799
a(I31874
g133
tp6800
a(I31875
g133
tp6801
a(I31876
g85
tp6802
a(I31877
g85
tp6803
a(I31878
g85
tp6804
a(I31882
g85
tp6805
a(I31883
g85
tp6806
a(I31884
g85
tp6807
a(I31887
g85
tp6808
a(I31919
g85
tp6809
a(I31920
g465
tp6810
a(I31921
g465
tp6811
a(I31922
g465
tp6812
a(I31923
g465
tp6813
a(I31924
g219
tp6814
a(I31925
g465
tp6815
a(I31926
g465
tp6816
a(I31929
g465
tp6817
a(I31951
g465
tp6818
a(I31967
g465
tp6819
a(I31968
g94
tp6820
a(I31969
g268
tp6821
a(I31970
g465
tp6822
a(I31973
g465
tp6823
a(I31976
g465
tp6824
a(I31979
g465
tp6825
a(I31982
g465
tp6826
a(I31993
g85
tp6827
a(I32014
g85
tp6828
a(I32015
g85
tp6829
a(I32016
g85
tp6830
a(I32018
g85
tp6831
a(I32019
g133
tp6832
a(I32020
g85
tp6833
a(I32025
g85
tp6834
a(I32028
g85
tp6835
a(I32029
g85
tp6836
a(I32030
g85
tp6837
a(I32043
g85
tp6838
a(I32061
g465
tp6839
a(I32062
g465
tp6840
a(I32063
g465
tp6841
a(I32064
g465
tp6842
a(I32065
g219
tp6843
a(I32066
g465
tp6844
a(I32067
g465
tp6845
a(I32073
g465
tp6846
a(I32075
g465
tp6847
a(I32076
g465
tp6848
a(I32077
g465
tp6849
a(I32089
g465
tp6850
a(I32091
g465
tp6851
a(I32110
g465
tp6852
a(I32112
g465
tp6853
a(I32113
g465
tp6854
a(I32115
g219
tp6855
a(I32116
g465
tp6856
a(I32118
g465
tp6857
a(I32120
g465
tp6858
a(I32122
g465
tp6859
a(I32125
g465
tp6860
a(I32152
g85
tp6861
a(I32157
g85
tp6862
a(I32159
g85
tp6863
a(I32160
g94
tp6864
a(I32161
g87
tp6865
a(I32162
g85
tp6866
a(I32169
g85
tp6867
a(I32170
g85
tp6868
a(I32172
g85
tp6869
a(I32173
g85
tp6870
a(I32175
g85
tp6871
a(I32195
g85
tp6872
a(I32200
g85
tp6873
a(I32206
g85
tp6874
a(I32207
g465
tp6875
a(I32208
g465
tp6876
a(I32209
g268
tp6877
a(I32210
g465
tp6878
a(I32212
g465
tp6879
a(I32215
g465
tp6880
a(I32216
g465
tp6881
a(I32217
g465
tp6882
a(I32218
g465
tp6883
a(I32230
g465
tp6884
a(I32232
g465
tp6885
a(I32234
g465
tp6886
a(I32235
g465
tp6887
a(I32236
g339
tp6888
a(I32249
g339
tp6889
a(I32251
g83
tp6890
a(I32252
g160
tp6891
a(I32253
g160
tp6892
a(I32255
g160
tp6893
a(I32256
g163
tp6894
a(I32257
g163
tp6895
a(I32258
g203
tp6896
a(I32259
g160
tp6897
a(I32260
g160
tp6898
a(I32267
g160
tp6899
a(I32268
g160
tp6900
a(I32270
g160
tp6901
a(I32280
g165
tp6902
a(I32281
g165
tp6903
a(I32303
g160
tp6904
a(I32304
g160
tp6905
a(I32305
g160
tp6906
a(I32306
g160
tp6907
a(I32307
g160
tp6908
a(I32308
g165
tp6909
a(I32309
g160
tp6910
a(I32310
g160
tp6911
a(I32311
g160
tp6912
a(I32313
g160
tp6913
a(I32351
g160
tp6914
a(I32352
g180
tp6915
a(I32353
g180
tp6916
a(I32354
g160
tp6917
a(I32359
g160
tp6918
a(I32361
g160
tp6919
a(I32363
g160
tp6920
a(I32366
g160
tp6921
a(I32388
g160
tp6922
a(I32399
g160
tp6923
a(I32400
g163
tp6924
a(I32401
g160
tp6925
a(I32403
g165
tp6926
a(I32404
g160
tp6927
a(I32408
g160
tp6928
a(I32410
g160
tp6929
a(I32411
g160
tp6930
a(I32415
g160
tp6931
a(I32446
g160
tp6932
a(I32447
g160
tp6933
a(I32448
g163
tp6934
a(I32449
g203
tp6935
a(I32450
g203
tp6936
a(I32451
g163
tp6937
a(I32452
g160
tp6938
a(I32458
g160
tp6939
a(I32459
g160
tp6940
a(I32460
g160
tp6941
a(I32486
g160
tp6942
a(I32495
g160
tp6943
a(I32499
g165
tp6944
a(I32500
g160
tp6945
a(I32514
g160
tp6946
a(I32542
g176
tp6947
a(I32543
g176
tp6948
a(I32544
g180
tp6949
a(I32545
g180
tp6950
a(I32546
g176
tp6951
a(I32553
g176
tp6952
a(I32555
g176
tp6953
a(I32557
g176
tp6954
a(I32558
g176
tp6955
a(I32590
g94
tp6956
a(I32591
g94
tp6957
a(I32593
g94
tp6958
a(I32595
g94
tp6959
a(I32596
g94
tp6960
a(I32597
g94
tp6961
a(I32599
g94
tp6962
a(I32600
g94
tp6963
a(I32601
g94
tp6964
a(I32602
g94
tp6965
a(I32614
g94
tp6966
a(I32615
g133
tp6967
a(I32616
g133
tp6968
a(I32618
g133
tp6969
a(I32623
g133
tp6970
a(I32632
g430
tp6971
a(I32635
g430
tp6972
a(I32636
g165
tp6973
a(I32637
g165
tp6974
a(I32638
g430
tp6975
a(I32639
g430
tp6976
a(I32640
g346
tp6977
a(I32641
g346
tp6978
a(I32642
g346
tp6979
a(I32643
g346
tp6980
a(I32644
g430
tp6981
a(I32645
g430
tp6982
a(I32646
g430
tp6983
a(I32649
g430
tp6984
a(I32651
g430
tp6985
a(I32652
g430
tp6986
a(I32675
g430
tp6987
a(I32689
g430
tp6988
a(I32690
g430
tp6989
a(I32692
g430
tp6990
a(I32693
g430
tp6991
a(I32694
g430
tp6992
a(I32695
g430
tp6993
a(I32697
g430
tp6994
a(I32699
g430
tp6995
a(I32736
g430
tp6996
a(I32737
g16
tp6997
a(I32738
g16
tp6998
a(I32739
g430
tp6999
a(I32742
g430
tp7000
a(I32748
g430
tp7001
a(I32750
g430
tp7002
a(I32769
g430
tp7003
a(I32782
g430
tp7004
a(I32783
g430
tp7005
a(I32784
g346
tp7006
a(I32786
g346
tp7007
a(I32787
g346
tp7008
a(I32788
g346
tp7009
a(I32789
g346
tp7010
a(I32790
g430
tp7011
a(I32791
g430
tp7012
a(I32792
g430
tp7013
a(I32794
g430
tp7014
a(I32795
g430
tp7015
a(I32796
g430
tp7016
a(I32831
g430
tp7017
a(I32832
g346
tp7018
a(I32833
g346
tp7019
a(I32834
g165
tp7020
a(I32835
g165
tp7021
a(I32843
g165
tp7022
a(I32844
g165
tp7023
a(I32845
g165
tp7024
a(I32846
g165
tp7025
a(I32870
g165
tp7026
a(I32875
g165
tp7027
a(I32879
g165
tp7028
a(I32880
g203
tp7029
a(I32882
g203
tp7030
a(I32883
g165
tp7031
a(I32884
g165
tp7032
a(I32888
g165
tp7033
a(I32890
g165
tp7034
a(I32913
g165
tp7035
a(I32919
g165
tp7036
a(I32924
g430
tp7037
a(I32927
g430
tp7038
a(I32928
g430
tp7039
a(I32929
g16
tp7040
a(I32930
g266
tp7041
a(I32931
g266
tp7042
a(I32932
g430
tp7043
a(I32940
g430
tp7044
a(I32941
g430
tp7045
a(I32977
g430
tp7046
a(I32978
g430
tp7047
a(I32980
g430
tp7048
a(I32981
g430
tp7049
a(I32984
g430
tp7050
a(I32985
g430
tp7051
a(I32986
g430
tp7052
a(I32992
g430
tp7053
a(I32995
g430
tp7054
a(I32996
g430
tp7055
a(I33002
g430
tp7056
a(I33008
g430
tp7057
a(I33010
g1919
tp7058
a(I33011
g1919
tp7059
a(I33017
g1919
tp7060
a(I33019
g9
tp7061
a(I33020
g16
tp7062
a(I33021
g16
tp7063
a(I33022
g16
tp7064
a(I33023
g16
tp7065
a(I33024
g9
tp7066
a(I33025
g9
tp7067
a(I33026
g9
tp7068
a(I33027
g9
tp7069
a(I33028
g9
tp7070
a(I33029
g9
tp7071
a(I33030
g9
tp7072
a(I33031
g9
tp7073
a(I33035
g9
tp7074
a(I33036
g9
tp7075
a(I33037
g9
tp7076
a(I33072
g9
tp7077
a(I33073
g9
tp7078
a(I33074
g9
tp7079
a(I33076
g9
tp7080
a(I33077
g9
tp7081
a(I33079
g9
tp7082
a(I33080
g9
tp7083
a(I33081
g9
tp7084
a(I33082
g9
tp7085
a(I33101
g9
tp7086
a(I33120
g9
tp7087
a(I33121
g346
tp7088
a(I33122
g346
tp7089
a(I33123
g346
tp7090
a(I33130
g346
tp7091
a(I33131
g346
tp7092
a(I33133
g346
tp7093
a(I33134
g346
tp7094
a(I33143
g9
tp7095
a(I33165
g9
tp7096
a(I33167
g9
tp7097
a(I33168
g9
tp7098
a(I33169
g9
tp7099
a(I33170
g9
tp7100
a(I33171
g9
tp7101
a(I33172
g9
tp7102
a(I33173
g9
tp7103
a(I33178
g9
tp7104
a(I33179
g9
tp7105
a(I33181
g9
tp7106
a(I33182
g9
tp7107
a(I33183
g9
tp7108
a(I33184
g9
tp7109
a(I33190
g9
tp7110
a(I33199
g9
tp7111
a(I33200
g9
tp7112
a(I33213
g346
tp7113
a(I33214
g346
tp7114
a(I33215
g346
tp7115
a(I33216
g346
tp7116
a(I33217
g346
tp7117
a(I33219
g346
tp7118
a(I33226
g346
tp7119
a(I33228
g346
tp7120
a(I33229
g346
tp7121
a(I33263
g346
tp7122
a(I33266
g346
tp7123
a(I33267
g346
tp7124
a(I33268
g346
tp7125
a(I33269
g346
tp7126
a(I33270
g346
tp7127
a(I33271
g346
tp7128
a(I33272
g346
tp7129
a(I33292
g346
tp7130
a(I33312
g346
tp7131
a(I33313
g346
tp7132
a(I33314
g346
tp7133
a(I33315
g346
tp7134
a(I33317
g346
tp7135
a(I33318
g346
tp7136
a(I33321
g346
tp7137
a(I33323
g346
tp7138
a(I33324
g346
tp7139
a(I33325
g346
tp7140
a(I33337
g346
tp7141
a(I33359
g346
tp7142
a(I33360
g346
tp7143
a(I33361
g346
tp7144
a(I33362
g346
tp7145
a(I33363
g346
tp7146
a(I33364
g346
tp7147
a(I33365
g346
tp7148
a(I33368
g346
tp7149
a(I33369
g346
tp7150
a(I33370
g346
tp7151
a(I33380
g346
tp7152
a(I33383
g346
tp7153
a(I33385
g346
tp7154
a(I33386
g346
tp7155
a(I33387
g346
tp7156
a(I33393
g339
tp7157
a(I33395
g4
tp7158
a(I33403
g714
tp7159
a(I33404
g87
tp7160
a(I33405
g87
tp7161
a(I33406
g87
tp7162
a(I33407
g87
tp7163
a(I33408
g87
tp7164
a(I33409
g87
tp7165
a(I33410
g94
tp7166
a(I33411
g87
tp7167
a(I33412
g87
tp7168
a(I33413
g87
tp7169
a(I33414
g87
tp7170
a(I33415
g85
tp7171
a(I33421
g85
tp7172
a(I33422
g85
tp7173
a(I33456
g85
tp7174
a(I33457
g85
tp7175
a(I33458
g85
tp7176
a(I33459
g85
tp7177
a(I33460
g133
tp7178
a(I33461
g85
tp7179
a(I33462
g85
tp7180
a(I33463
g85
tp7181
a(I33464
g85
tp7182
a(I33466
g85
tp7183
a(I33489
g85
tp7184
a(I33503
g85
tp7185
a(I33504
g87
tp7186
a(I33505
g94
tp7187
a(I33506
g268
tp7188
a(I33507
g465
tp7189
a(I33508
g465
tp7190
a(I33515
g465
tp7191
a(I33518
g465
tp7192
a(I33520
g465
tp7193
a(I33530
g85
tp7194
a(I33551
g85
tp7195
a(I33552
g85
tp7196
a(I33553
g85
tp7197
a(I33554
g85
tp7198
a(I33555
g133
tp7199
a(I33556
g85
tp7200
a(I33559
g85
tp7201
a(I33560
g85
tp7202
a(I33561
g85
tp7203
a(I33563
g85
tp7204
a(I33564
g85
tp7205
a(I33588
g85
tp7206
a(I33589
g85
tp7207
a(I33597
g465
tp7208
a(I33598
g465
tp7209
a(I33599
g219
tp7210
a(I33600
g219
tp7211
a(I33601
g219
tp7212
a(I33602
g219
tp7213
a(I33603
g219
tp7214
a(I33610
g219
tp7215
a(I33611
g219
tp7216
a(I33612
g219
tp7217
a(I33613
g219
tp7218
a(I33617
g219
tp7219
a(I33624
g219
tp7220
a(I33625
g219
tp7221
a(I33647
g219
tp7222
a(I33648
g219
tp7223
a(I33650
g219
tp7224
a(I33651
g219
tp7225
a(I33652
g219
tp7226
a(I33654
g219
tp7227
a(I33655
g219
tp7228
a(I33656
g219
tp7229
a(I33658
g219
tp7230
a(I33674
g219
tp7231
a(I33677
g465
tp7232
a(I33691
g85
tp7233
a(I33693
g85
tp7234
a(I33695
g85
tp7235
a(I33696
g87
tp7236
a(I33697
g94
tp7237
a(I33698
g268
tp7238
a(I33699
g465
tp7239
a(I33707
g465
tp7240
a(I33708
g465
tp7241
a(I33709
g465
tp7242
a(I33711
g465
tp7243
a(I33713
g465
tp7244
a(I33715
g465
tp7245
a(I33724
g85
tp7246
a(I33742
g85
tp7247
a(I33743
g85
tp7248
a(I33744
g465
tp7249
a(I33745
g268
tp7250
a(I33746
g465
tp7251
a(I33747
g465
tp7252
a(I33751
g465
tp7253
a(I33752
g465
tp7254
a(I33754
g465
tp7255
a(I33755
g465
tp7256
a(I33764
g465
tp7257
a(I33767
g465
tp7258
a(I33768
g465
tp7259
a(I33769
g465
tp7260
a(I33770
g465
tp7261
a(I33780
g85
tp7262
a(I33787
g85
tp7263
a(I33788
g176
tp7264
a(I33789
g176
tp7265
a(I33790
g176
tp7266
a(I33791
g176
tp7267
a(I33792
g268
tp7268
a(I33793
g268
tp7269
a(I33794
g176
tp7270
a(I33795
g176
tp7271
a(I33796
g176
tp7272
a(I33797
g160
tp7273
a(I33803
g160
tp7274
a(I33805
g160
tp7275
a(I33840
g160
tp7276
a(I33841
g160
tp7277
a(I33842
g160
tp7278
a(I33843
g160
tp7279
a(I33844
g165
tp7280
a(I33845
g160
tp7281
a(I33847
g160
tp7282
a(I33848
g160
tp7283
a(I33849
g160
tp7284
a(I33850
g160
tp7285
a(I33856
g160
tp7286
a(I33866
g160
tp7287
a(I33887
g160
tp7288
a(I33888
g180
tp7289
a(I33889
g16
tp7290
a(I33890
g16
tp7291
a(I33891
g160
tp7292
a(I33896
g160
tp7293
a(I33897
g160
tp7294
a(I33898
g160
tp7295
a(I33900
g160
tp7296
a(I33934
g160
tp7297
a(I33935
g160
tp7298
a(I33936
g163
tp7299
a(I33937
g160
tp7300
a(I33939
g165
tp7301
a(I33940
g165
tp7302
a(I33941
g160
tp7303
a(I33944
g160
tp7304
a(I33945
g160
tp7305
a(I33947
g160
tp7306
a(I33972
g160
tp7307
a(I33982
g160
tp7308
a(I33983
g160
tp7309
a(I33984
g203
tp7310
a(I33985
g203
tp7311
a(I33986
g163
tp7312
a(I33987
g160
tp7313
a(I33995
g160
tp7314
a(I33996
g160
tp7315
a(I33998
g160
tp7316
a(I34036
g165
tp7317
a(I34037
g160
tp7318
a(I34048
g160
tp7319
a(I34054
g160
tp7320
a(I34078
g160
tp7321
a(I34079
g160
tp7322
a(I34080
g16
tp7323
a(I34081
g180
tp7324
a(I34082
g16
tp7325
a(I34083
g160
tp7326
a(I34089
g160
tp7327
a(I34091
g160
tp7328
a(I34092
g160
tp7329
a(I34093
g160
tp7330
a(I34094
g160
tp7331
a(I34123
g160
tp7332
a(I34127
g165
tp7333
a(I34128
g165
tp7334
a(I34129
g165
tp7335
a(I34131
g165
tp7336
a(I34132
g165
tp7337
a(I34133
g165
tp7338
a(I34135
g165
tp7339
a(I34136
g165
tp7340
a(I34138
g165
tp7341
a(I34139
g165
tp7342
a(I34151
g165
tp7343
a(I34153
g165
tp7344
a(I34154
g165
tp7345
a(I34155
g430
tp7346
a(I34169
g430
tp7347
a(I34171
g165
tp7348
a(I34172
g165
tp7349
a(I34173
g165
tp7350
a(I34175
g165
tp7351
a(I34176
g203
tp7352
a(I34177
g203
tp7353
a(I34178
g203
tp7354
a(I34179
g203
tp7355
a(I34180
g430
tp7356
a(I34181
g430
tp7357
a(I34182
g430
tp7358
a(I34188
g430
tp7359
a(I34190
g430
tp7360
a(I34224
g16
tp7361
a(I34225
g16
tp7362
a(I34226
g346
tp7363
a(I34227
g430
tp7364
a(I34228
g430
tp7365
a(I34231
g430
tp7366
a(I34232
g430
tp7367
a(I34233
g430
tp7368
a(I34272
g430
tp7369
a(I34273
g16
tp7370
a(I34274
g266
tp7371
a(I34275
g16
tp7372
a(I34279
g16
tp7373
a(I34282
g16
tp7374
a(I34283
g16
tp7375
a(I34285
g16
tp7376
a(I34316
g16
tp7377
a(I34319
g16
tp7378
a(I34320
g266
tp7379
a(I34321
g266
tp7380
a(I34322
g266
tp7381
a(I34323
g266
tp7382
a(I34324
g16
tp7383
a(I34325
g16
tp7384
a(I34326
g16
tp7385
a(I34327
g16
tp7386
a(I34328
g16
tp7387
a(I34331
g16
tp7388
a(I34333
g430
tp7389
a(I34343
g430
tp7390
a(I34365
g165
tp7391
a(I34367
g165
tp7392
a(I34368
g203
tp7393
a(I34369
g203
tp7394
a(I34370
g597
tp7395
a(I34371
g597
tp7396
a(I34372
g165
tp7397
a(I34376
g165
tp7398
a(I34378
g165
tp7399
a(I34379
g165
tp7400
a(I34400
g430
tp7401
a(I34411
g430
tp7402
a(I34413
g430
tp7403
a(I34414
g430
tp7404
a(I34416
g346
tp7405
a(I34417
g346
tp7406
a(I34419
g346
tp7407
a(I34429
g346
tp7408
a(I34443
g346
tp7409
a(I34452
g346
tp7410
a(I34453
g346
tp7411
a(I34454
g346
tp7412
a(I34456
g346
tp7413
a(I34461
g346
tp7414
a(I34463
g203
tp7415
a(I34464
g203
tp7416
a(I34465
g203
tp7417
a(I34466
g165
tp7418
a(I34467
g165
tp7419
a(I34468
g165
tp7420
a(I34469
g165
tp7421
a(I34470
g165
tp7422
a(I34472
g165
tp7423
a(I34473
g165
tp7424
a(I34475
g165
tp7425
a(I34503
g430
tp7426
a(I34511
g430
tp7427
a(I34512
g346
tp7428
a(I34513
g346
tp7429
a(I34514
g430
tp7430
a(I34515
g430
tp7431
a(I34516
g430
tp7432
a(I34520
g430
tp7433
a(I34521
g430
tp7434
a(I34523
g430
tp7435
a(I34525
g430
tp7436
a(I34530
g430
tp7437
a(I34531
g430
tp7438
a(I34533
g430
tp7439
a(I34539
g430
tp7440
a(I34541
g430
tp7441
a(I34542
g430
tp7442
a(I34546
g430
tp7443
a(I34551
g430
tp7444
a(I34555
g16
tp7445
a(I34556
g266
tp7446
a(I34557
g266
tp7447
a(I34558
g266
tp7448
a(I34559
g266
tp7449
a(I34560
g266
tp7450
a(I34561
g266
tp7451
a(I34562
g266
tp7452
a(I34563
g266
tp7453
a(I34564
g16
tp7454
a(I34565
g16
tp7455
a(I34566
g16
tp7456
a(I34567
g16
tp7457
a(I34570
g9
tp7458
a(I34571
g9
tp7459
a(I34573
g9
tp7460
a(I34578
g9
tp7461
a(I34584
g9
tp7462
a(I34608
g9
tp7463
a(I34609
g9
tp7464
a(I34611
g9
tp7465
a(I34612
g9
tp7466
a(I34613
g9
tp7467
a(I34614
g9
tp7468
a(I34615
g9
tp7469
a(I34617
g9
tp7470
a(I34630
g9
tp7471
a(I34655
g9
tp7472
a(I34656
g9
tp7473
a(I34657
g9
tp7474
a(I34658
g9
tp7475
a(I34659
g9
tp7476
a(I34660
g9
tp7477
a(I34662
g9
tp7478
a(I34665
g9
tp7479
a(I34666
g9
tp7480
a(I34668
g9
tp7481
a(I34669
g9
tp7482
a(I34689
g9
tp7483
a(I34703
g9
tp7484
a(I34704
g9
tp7485
a(I34705
g9
tp7486
a(I34707
g9
tp7487
a(I34708
g9
tp7488
a(I34711
g9
tp7489
a(I34712
g9
tp7490
a(I34713
g9
tp7491
a(I34714
g9
tp7492
a(I34715
g9
tp7493
a(I34717
g9
tp7494
a(I34732
g9
tp7495
a(I34749
g346
tp7496
a(I34750
g346
tp7497
a(I34751
g346
tp7498
a(I34752
g346
tp7499
a(I34753
g346
tp7500
a(I34754
g346
tp7501
a(I34755
g346
tp7502
a(I34764
g346
tp7503
a(I34766
g346
tp7504
a(I34767
g346
tp7505
a(I34798
g346
tp7506
a(I34800
g346
tp7507
a(I34802
g346
tp7508
a(I34803
g346
tp7509
a(I34804
g346
tp7510
a(I34806
g346
tp7511
a(I34807
g346
tp7512
a(I34809
g346
tp7513
a(I34818
g346
tp7514
a(I34828
g346
tp7515
a(I34846
g346
tp7516
a(I34847
g346
tp7517
a(I34848
g346
tp7518
a(I34849
g346
tp7519
a(I34850
g346
tp7520
a(I34851
g346
tp7521
a(I34852
g346
tp7522
a(I34853
g346
tp7523
a(I34857
g346
tp7524
a(I34858
g346
tp7525
a(I34860
g346
tp7526
a(I34861
g346
tp7527
a(I34875
g346
tp7528
a(I34889
g346
tp7529
a(I34894
g346
tp7530
a(I34896
g346
tp7531
a(I34897
g346
tp7532
a(I34898
g346
tp7533
a(I34899
g346
tp7534
a(I34900
g346
tp7535
a(I34901
g346
tp7536
a(I34902
g346
tp7537
a(I34904
g346
tp7538
a(I34905
g346
tp7539
a(I34907
g346
tp7540
a(I34914
g346
tp7541
a(I34915
g339
tp7542
a(I34916
g339
tp7543
a(I34919
g339
tp7544
a(I34920
g2
tp7545
a(I34931
g2
tp7546
a(I34940
g133
tp7547
a(I34941
g133
tp7548
a(I34942
g133
tp7549
a(I34943
g133
tp7550
a(I34944
g85
tp7551
a(I34945
g133
tp7552
a(I34946
g133
tp7553
a(I34947
g85
tp7554
a(I34949
g85
tp7555
a(I34950
g85
tp7556
a(I34951
g85
tp7557
a(I34954
g85
tp7558
a(I34958
g85
tp7559
a(I34959
g85
tp7560
a(I34971
g85
tp7561
a(I34990
g85
tp7562
a(I34991
g85
tp7563
a(I34992
g163
tp7564
a(I34993
g163
tp7565
a(I34994
g163
tp7566
a(I34996
g94
tp7567
a(I34997
g163
tp7568
a(I35001
g163
tp7569
a(I35002
g163
tp7570
a(I35003
g163
tp7571
a(I35005
g163
tp7572
a(I35033
g163
tp7573
a(I35039
g163
tp7574
a(I35040
g94
tp7575
a(I35041
g1419
tp7576
a(I35042
g163
tp7577
a(I35045
g163
tp7578
a(I35048
g163
tp7579
a(I35050
g163
tp7580
a(I35051
g163
tp7581
a(I35052
g163
tp7582
a(I35086
g163
tp7583
a(I35087
g163
tp7584
a(I35088
g163
tp7585
a(I35089
g163
tp7586
a(I35091
g94
tp7587
a(I35092
g163
tp7588
a(I35095
g163
tp7589
a(I35096
g163
tp7590
a(I35097
g163
tp7591
a(I35098
g163
tp7592
a(I35099
g163
tp7593
a(I35101
g163
tp7594
a(I35102
g163
tp7595
a(I35111
g163
tp7596
a(I35123
g85
tp7597
a(I35132
g85
tp7598
a(I35133
g465
tp7599
a(I35134
g465
tp7600
a(I35135
g465
tp7601
a(I35136
g465
tp7602
a(I35137
g219
tp7603
a(I35139
g465
tp7604
a(I35140
g465
tp7605
a(I35141
g465
tp7606
a(I35148
g465
tp7607
a(I35149
g465
tp7608
a(I35172
g465
tp7609
a(I35182
g465
tp7610
a(I35187
g219
tp7611
a(I35188
g465
tp7612
a(I35220
g465
tp7613
a(I35223
g465
tp7614
a(I35224
g85
tp7615
a(I35229
g85
tp7616
a(I35230
g85
tp7617
a(I35231
g85
tp7618
a(I35232
g94
tp7619
a(I35233
g87
tp7620
a(I35234
g87
tp7621
a(I35235
g85
tp7622
a(I35236
g85
tp7623
a(I35238
g85
tp7624
a(I35243
g85
tp7625
a(I35244
g85
tp7626
a(I35245
g85
tp7627
a(I35246
g85
tp7628
a(I35279
g465
tp7629
a(I35280
g465
tp7630
a(I35281
g268
tp7631
a(I35282
g465
tp7632
a(I35283
g465
tp7633
a(I35288
g465
tp7634
a(I35291
g465
tp7635
a(I35292
g465
tp7636
a(I35293
g465
tp7637
a(I35296
g465
tp7638
a(I35299
g465
tp7639
a(I35302
g465
tp7640
a(I35303
g339
tp7641
a(I35316
g339
tp7642
a(I35317
g83
tp7643
a(I35323
g83
tp7644
a(I35324
g160
tp7645
a(I35325
g160
tp7646
a(I35326
g160
tp7647
a(I35327
g160
tp7648
a(I35328
g163
tp7649
a(I35329
g163
tp7650
a(I35330
g203
tp7651
a(I35331
g160
tp7652
a(I35332
g160
tp7653
a(I35337
g160
tp7654
a(I35339
g160
tp7655
a(I35341
g160
tp7656
a(I35342
g160
tp7657
a(I35348
g160
tp7658
a(I35373
g634
tp7659
a(I35374
g634
tp7660
a(I35375
g634
tp7661
a(I35376
g634
tp7662
a(I35377
g634
tp7663
a(I35378
g634
tp7664
a(I35379
g634
tp7665
a(I35380
g424
tp7666
a(I35381
g634
tp7667
a(I35382
g634
tp7668
a(I35383
g634
tp7669
a(I35385
g160
tp7670
a(I35396
g160
tp7671
a(I35423
g160
tp7672
a(I35424
g180
tp7673
a(I35425
g16
tp7674
a(I35426
g160
tp7675
a(I35430
g160
tp7676
a(I35432
g160
tp7677
a(I35435
g160
tp7678
a(I35437
g160
tp7679
a(I35470
g160
tp7680
a(I35471
g160
tp7681
a(I35472
g163
tp7682
a(I35473
g160
tp7683
a(I35474
g160
tp7684
a(I35475
g165
tp7685
a(I35476
g160
tp7686
a(I35479
g160
tp7687
a(I35483
g160
tp7688
a(I35484
g160
tp7689
a(I35485
g160
tp7690
a(I35486
g160
tp7691
a(I35487
g160
tp7692
a(I35516
g160
tp7693
a(I35518
g160
tp7694
a(I35519
g160
tp7695
a(I35520
g163
tp7696
a(I35521
g203
tp7697
a(I35522
g163
tp7698
a(I35523
g160
tp7699
a(I35532
g160
tp7700
a(I35534
g160
tp7701
a(I35535
g160
tp7702
a(I35559
g160
tp7703
a(I35566
g160
tp7704
a(I35568
g160
tp7705
a(I35570
g160
tp7706
a(I35571
g165
tp7707
a(I35572
g160
tp7708
a(I35573
g160
tp7709
a(I35574
g160
tp7710
a(I35575
g160
tp7711
a(I35598
g160
tp7712
a(I35612
g160
tp7713
a(I35614
g160
tp7714
a(I35615
g160
tp7715
a(I35616
g180
tp7716
a(I35617
g180
tp7717
a(I35618
g16
tp7718
a(I35619
g160
tp7719
a(I35622
g160
tp7720
a(I35625
g160
tp7721
a(I35627
g160
tp7722
a(I35630
g160
tp7723
a(I35641
g160
tp7724
a(I35664
g165
tp7725
a(I35665
g165
tp7726
a(I35666
g165
tp7727
a(I35668
g165
tp7728
a(I35669
g165
tp7729
a(I35672
g165
tp7730
a(I35673
g165
tp7731
a(I35675
g165
tp7732
a(I35676
g165
tp7733
a(I35682
g165
tp7734
a(I35683
g165
tp7735
a(I35685
g165
tp7736
a(I35686
g165
tp7737
a(I35687
g165
tp7738
a(I35704
g165
tp7739
a(I35707
g165
tp7740
a(I35708
g165
tp7741
a(I35709
g165
tp7742
a(I35710
g165
tp7743
a(I35711
g165
tp7744
a(I35712
g203
tp7745
a(I35713
g203
tp7746
a(I35714
g203
tp7747
a(I35715
g203
tp7748
a(I35716
g165
tp7749
a(I35717
g165
tp7750
a(I35719
g430
tp7751
a(I35722
g430
tp7752
a(I35723
g430
tp7753
a(I35726
g430
tp7754
a(I35727
g430
tp7755
a(I35760
g165
tp7756
a(I35761
g165
tp7757
a(I35762
g165
tp7758
a(I35763
g165
tp7759
a(I35764
g165
tp7760
a(I35765
g165
tp7761
a(I35768
g165
tp7762
a(I35770
g165
tp7763
a(I35806
g165
tp7764
a(I35807
g165
tp7765
a(I35808
g180
tp7766
a(I35809
g180
tp7767
a(I35810
g180
tp7768
a(I35811
g180
tp7769
a(I35812
g165
tp7770
a(I35814
g165
tp7771
a(I35820
g165
tp7772
a(I35821
g165
tp7773
a(I35823
g165
tp7774
a(I35824
g165
tp7775
a(I35844
g165
tp7776
a(I35854
g165
tp7777
a(I35855
g165
tp7778
a(I35857
g165
tp7779
a(I35858
g165
tp7780
a(I35859
g165
tp7781
a(I35860
g165
tp7782
a(I35861
g165
tp7783
a(I35862
g165
tp7784
a(I35863
g165
tp7785
a(I35864
g165
tp7786
a(I35865
g165
tp7787
a(I35870
g165
tp7788
a(I35901
g165
tp7789
a(I35902
g165
tp7790
a(I35903
g165
tp7791
a(I35904
g203
tp7792
a(I35905
g203
tp7793
a(I35906
g165
tp7794
a(I35907
g165
tp7795
a(I35913
g165
tp7796
a(I35914
g165
tp7797
a(I35916
g165
tp7798
a(I35949
g165
tp7799
a(I35950
g430
tp7800
a(I35951
g165
tp7801
a(I35952
g203
tp7802
a(I35953
g203
tp7803
a(I35956
g203
tp7804
a(I35957
g165
tp7805
a(I35958
g165
tp7806
a(I35959
g165
tp7807
a(I35961
g165
tp7808
a(I35980
g165
tp7809
a(I35983
g165
tp7810
a(I35987
g165
tp7811
a(I35996
g165
tp7812
a(I35997
g165
tp7813
a(I35999
g165
tp7814
a(I36001
g430
tp7815
a(I36002
g16
tp7816
a(I36003
g16
tp7817
a(I36004
g16
tp7818
a(I36005
g16
tp7819
a(I36006
g16
tp7820
a(I36007
g430
tp7821
a(I36011
g430
tp7822
a(I36012
g430
tp7823
a(I36013
g430
tp7824
a(I36014
g430
tp7825
a(I36045
g430
tp7826
a(I36046
g430
tp7827
a(I36048
g346
tp7828
a(I36049
g346
tp7829
a(I36050
g346
tp7830
a(I36051
g346
tp7831
a(I36052
g346
tp7832
a(I36053
g346
tp7833
a(I36056
g346
tp7834
a(I36057
g346
tp7835
a(I36058
g346
tp7836
a(I36062
g346
tp7837
a(I36063
g346
tp7838
a(I36065
g346
tp7839
a(I36066
g346
tp7840
a(I36076
g346
tp7841
a(I36077
g346
tp7842
a(I36080
g339
tp7843
a(I36084
g339
tp7844
a(I36085
g339
tp7845
a(I36087
g2
tp7846
a(I36091
g9
tp7847
a(I36092
g16
tp7848
a(I36093
g16
tp7849
a(I36094
g16
tp7850
a(I36095
g16
tp7851
a(I36096
g16
tp7852
a(I36097
g16
tp7853
a(I36098
g16
tp7854
a(I36099
g16
tp7855
a(I36100
g16
tp7856
a(I36101
g16
tp7857
a(I36102
g16
tp7858
a(I36103
g16
tp7859
a(I36106
g9
tp7860
a(I36109
g9
tp7861
a(I36110
g9
tp7862
a(I36111
g9
tp7863
a(I36144
g9
tp7864
a(I36145
g9
tp7865
a(I36147
g9
tp7866
a(I36148
g9
tp7867
a(I36149
g9
tp7868
a(I36150
g9
tp7869
a(I36151
g9
tp7870
a(I36153
g9
tp7871
a(I36179
g9
tp7872
a(I36191
g9
tp7873
a(I36192
g9
tp7874
a(I36193
g9
tp7875
a(I36194
g9
tp7876
a(I36195
g9
tp7877
a(I36200
g9
tp7878
a(I36201
g9
tp7879
a(I36202
g9
tp7880
a(I36203
g9
tp7881
a(I36204
g9
tp7882
a(I36238
g9
tp7883
a(I36239
g9
tp7884
a(I36240
g9
tp7885
a(I36241
g9
tp7886
a(I36243
g9
tp7887
a(I36244
g9
tp7888
a(I36249
g9
tp7889
a(I36251
g9
tp7890
a(I36252
g9
tp7891
a(I36254
g9
tp7892
a(I36256
g9
tp7893
a(I36263
g9
tp7894
a(I36287
g9
tp7895
a(I36288
g9
tp7896
a(I36289
g9
tp7897
a(I36290
g9
tp7898
a(I36291
g9
tp7899
a(I36296
g9
tp7900
a(I36298
g9
tp7901
a(I36299
g9
tp7902
a(I36300
g9
tp7903
a(I36302
g9
tp7904
a(I36330
g9
tp7905
a(I36334
g9
tp7906
a(I36335
g9
tp7907
a(I36339
g9
tp7908
a(I36340
g9
tp7909
a(I36343
g9
tp7910
a(I36353
g9
tp7911
a(I36366
g9
tp7912
a(I36382
g9
tp7913
a(I36383
g9
tp7914
a(I36384
g9
tp7915
a(I36385
g9
tp7916
a(I36386
g9
tp7917
a(I36393
g9
tp7918
a(I36394
g9
tp7919
a(I36397
g9
tp7920
a(I36399
g9
tp7921
a(I36430
g71
tp7922
a(I36432
g71
tp7923
a(I36433
g71
tp7924
a(I36434
g71
tp7925
a(I36435
g71
tp7926
a(I36436
g71
tp7927
a(I36437
g71
tp7928
a(I36438
g71
tp7929
a(I36439
g71
tp7930
a(I36441
g71
tp7931
a(I36442
g71
tp7932
a(I36448
g71
tp7933
a(I36450
g71
tp7934
a(I36451
g71
tp7935
a(I36452
g80
tp7936
a(I36455
g80
tp7937
a(I36460
g83
tp7938
a(I36470
g83
tp7939
a(I36476
g85
tp7940
a(I36477
g85
tp7941
a(I36479
g85
tp7942
a(I36480
g85
tp7943
a(I36481
g133
tp7944
a(I36482
g133
tp7945
a(I36483
g85
tp7946
a(I36484
g85
tp7947
a(I36485
g85
tp7948
a(I36486
g85
tp7949
a(I36487
g85
tp7950
a(I36488
g85
tp7951
a(I36489
g85
tp7952
a(I36490
g85
tp7953
a(I36498
g85
tp7954
a(I36500
g85
tp7955
a(I36527
g85
tp7956
a(I36529
g85
tp7957
a(I36530
g85
tp7958
a(I36531
g85
tp7959
a(I36532
g133
tp7960
a(I36533
g85
tp7961
a(I36534
g85
tp7962
a(I36536
g85
tp7963
a(I36538
g85
tp7964
a(I36575
g85
tp7965
a(I36576
g94
tp7966
a(I36577
g87
tp7967
a(I36578
g85
tp7968
a(I36585
g85
tp7969
a(I36586
g85
tp7970
a(I36587
g85
tp7971
a(I36590
g85
tp7972
a(I36591
g85
tp7973
a(I36602
g85
tp7974
a(I36603
g85
tp7975
a(I36621
g85
tp7976
a(I36623
g465
tp7977
a(I36624
g465
tp7978
a(I36626
g465
tp7979
a(I36627
g219
tp7980
a(I36628
g465
tp7981
a(I36633
g465
tp7982
a(I36634
g465
tp7983
a(I36635
g465
tp7984
a(I36636
g465
tp7985
a(I36638
g465
tp7986
a(I36670
g465
tp7987
a(I36671
g465
tp7988
a(I36672
g465
tp7989
a(I36673
g219
tp7990
a(I36674
g465
tp7991
a(I36675
g465
tp7992
a(I36682
g465
tp7993
a(I36684
g465
tp7994
a(I36700
g465
tp7995
a(I36703
g465
tp7996
a(I36719
g85
tp7997
a(I36720
g85
tp7998
a(I36721
g85
tp7999
a(I36722
g85
tp8000
a(I36723
g133
tp8001
a(I36724
g85
tp8002
a(I36726
g85
tp8003
a(I36727
g85
tp8004
a(I36729
g85
tp8005
a(I36736
g85
tp8006
a(I36759
g85
tp8007
a(I36768
g87
tp8008
a(I36769
g94
tp8009
a(I36770
g268
tp8010
a(I36771
g465
tp8011
a(I36774
g465
tp8012
a(I36778
g465
tp8013
a(I36779
g465
tp8014
a(I36781
g465
tp8015
a(I36783
g465
tp8016
a(I36808
g85
tp8017
a(I36815
g85
tp8018
a(I36816
g465
tp8019
a(I36817
g268
tp8020
a(I36818
g465
tp8021
a(I36819
g465
tp8022
a(I36822
g465
tp8023
a(I36825
g465
tp8024
a(I36837
g465
tp8025
a(I36838
g465
tp8026
a(I36839
g465
tp8027
a(I36841
g465
tp8028
a(I36842
g85
tp8029
a(I36859
g85
tp8030
a(I36860
g176
tp8031
a(I36861
g176
tp8032
a(I36862
g176
tp8033
a(I36863
g176
tp8034
a(I36864
g163
tp8035
a(I36865
g163
tp8036
a(I36866
g203
tp8037
a(I36867
g163
tp8038
a(I36868
g160
tp8039
a(I36869
g160
tp8040
a(I36873
g160
tp8041
a(I36874
g160
tp8042
a(I36875
g160
tp8043
a(I36876
g160
tp8044
a(I36912
g160
tp8045
a(I36913
g160
tp8046
a(I36914
g160
tp8047
a(I36915
g160
tp8048
a(I36916
g165
tp8049
a(I36917
g160
tp8050
a(I36918
g160
tp8051
a(I36919
g160
tp8052
a(I36959
g160
tp8053
a(I36960
g180
tp8054
a(I36961
g16
tp8055
a(I36962
g160
tp8056
a(I36968
g160
tp8057
a(I36971
g160
tp8058
a(I36972
g160
tp8059
a(I36974
g160
tp8060
a(I37005
g160
tp8061
a(I37007
g160
tp8062
a(I37008
g163
tp8063
a(I37009
g160
tp8064
a(I37011
g165
tp8065
a(I37012
g160
tp8066
a(I37020
g160
tp8067
a(I37021
g160
tp8068
a(I37023
g160
tp8069
a(I37024
g160
tp8070
a(I37031
g160
tp8071
a(I37054
g160
tp8072
a(I37055
g160
tp8073
a(I37056
g163
tp8074
a(I37057
g203
tp8075
a(I37058
g163
tp8076
a(I37059
g160
tp8077
a(I37061
g160
tp8078
a(I37062
g160
tp8079
a(I37083
g160
tp8080
a(I37086
g160
tp8081
a(I37095
g160
tp8082
a(I37097
g160
tp8083
a(I37101
g165
tp8084
a(I37102
g165
tp8085
a(I37104
g165
tp8086
a(I37106
g165
tp8087
a(I37107
g165
tp8088
a(I37108
g165
tp8089
a(I37114
g165
tp8090
a(I37116
g165
tp8091
a(I37119
g165
tp8092
a(I37136
g165
tp8093
a(I37146
g160
tp8094
a(I37148
g160
tp8095
a(I37149
g160
tp8096
a(I37150
g160
tp8097
a(I37151
g160
tp8098
a(I37152
g16
tp8099
a(I37153
g180
tp8100
a(I37154
g16
tp8101
a(I37155
g160
tp8102
a(I37160
g160
tp8103
a(I37161
g160
tp8104
a(I37162
g160
tp8105
a(I37195
g160
tp8106
a(I37198
g160
tp8107
a(I37199
g160
tp8108
a(I37201
g163
tp8109
a(I37202
g160
tp8110
a(I37203
g160
tp8111
a(I37207
g160
tp8112
a(I37208
g160
tp8113
a(I37209
g160
tp8114
a(I37211
g160
tp8115
a(I37227
g160
tp8116
a(I37228
g160
tp8117
a(I37233
g160
tp8118
a(I37243
g160
tp8119
a(I37244
g16
tp8120
a(I37245
g160
tp8121
a(I37246
g160
tp8122
a(I37247
g160
tp8123
a(I37248
g160
tp8124
a(I37249
g160
tp8125
a(I37250
g16
tp8126
a(I37251
g16
tp8127
a(I37252
g160
tp8128
a(I37260
g160
tp8129
a(I37261
g160
tp8130
a(I37262
g160
tp8131
a(I37264
g160
tp8132
a(I37278
g160
tp8133
a(I37280
g160
tp8134
a(I37289
g83
tp8135
a(I37290
g83
tp8136
a(I37291
g83
tp8137
a(I37292
g83
tp8138
a(I37296
g339
tp8139
a(I37297
g83
tp8140
a(I37313
g518
tp8141
a(I37339
g1919
tp8142
a(I37345
g1919
tp8143
a(I37436
g4
tp8144
a(I37438
g83
tp8145
a(I37443
g4
tp8146
a(I37444
g83
tp8147
a(I37488
g83
tp8148
a(I37489
g83
tp8149
a(I37531
g157
tp8150
a(I37534
g643
tp8151
a(I37537
g157
tp8152
a(I37538
g643
tp8153
a(I37592
g2
tp8154
a(I37602
g2
tp8155
a(I37609
g2
tp8156
a(I37618
g9
tp8157
a(I37627
g9
tp8158
a(I37628
g9
tp8159
a(I37629
g9
tp8160
a(I37630
g9
tp8161
a(I37631
g9
tp8162
a(I37632
g9
tp8163
a(I37633
g9
tp8164
a(I37634
g9
tp8165
a(I37635
g16
tp8166
a(I37636
g9
tp8167
a(I37642
g9
tp8168
a(I37643
g9
tp8169
a(I37645
g9
tp8170
a(I37648
g9
tp8171
a(I37666
g9
tp8172
a(I37667
g9
tp8173
a(I37674
g9
tp8174
a(I37680
g9
tp8175
a(I37681
g9
tp8176
a(I37682
g9
tp8177
a(I37683
g9
tp8178
a(I37684
g9
tp8179
a(I37685
g9
tp8180
a(I37687
g9
tp8181
a(I37688
g9
tp8182
a(I37689
g9
tp8183
a(I37690
g9
tp8184
a(I37708
g9
tp8185
a(I37727
g9
tp8186
a(I37728
g4766
tp8187
a(I37729
g9
tp8188
a(I37730
g9
tp8189
a(I37731
g9
tp8190
a(I37733
g9
tp8191
a(I37736
g9
tp8192
a(I37739
g9
tp8193
a(I37741
g9
tp8194
a(I37762
g9
tp8195
a(I37774
g346
tp8196
a(I37775
g346
tp8197
a(I37776
g346
tp8198
a(I37777
g346
tp8199
a(I37778
g346
tp8200
a(I37779
g346
tp8201
a(I37784
g346
tp8202
a(I37786
g346
tp8203
a(I37787
g346
tp8204
a(I37823
g346
tp8205
a(I37824
g4788
tp8206
a(I37825
g346
tp8207
a(I37826
g346
tp8208
a(I37827
g9
tp8209
a(I37834
g9
tp8210
a(I37835
g9
tp8211
a(I37838
g9
tp8212
a(I37862
g9
tp8213
a(I37872
g9
tp8214
a(I37874
g9
tp8215
a(I37875
g9
tp8216
a(I37876
g9
tp8217
a(I37877
g9
tp8218
a(I37879
g9
tp8219
a(I37880
g9
tp8220
a(I37918
g9
tp8221
a(I37919
g4766
tp8222
a(I37920
g4766
tp8223
a(I37921
g9
tp8224
a(I37922
g9
tp8225
a(I37923
g9
tp8226
a(I37927
g9
tp8227
a(I37928
g9
tp8228
a(I37929
g9
tp8229
a(I37931
g9
tp8230
a(I37960
g71
tp8231
a(I37966
g424
tp8232
a(I37967
g424
tp8233
a(I37968
g424
tp8234
a(I37969
g424
tp8235
a(I37971
g424
tp8236
a(I37972
g424
tp8237
a(I37973
g424
tp8238
a(I37974
g424
tp8239
a(I37975
g424
tp8240
a(I37977
g424
tp8241
a(I37978
g424
tp8242
a(I37980
g424
tp8243
a(I37987
g427
tp8244
a(I37988
g427
tp8245
a(I37989
g427
tp8246
a(I37998
g219
tp8247
a(I38003
g133
tp8248
a(I38009
g94
tp8249
a(I38010
g87
tp8250
a(I38011
g87
tp8251
a(I38013
g87
tp8252
a(I38014
g87
tp8253
a(I38015
g87
tp8254
a(I38016
g4847
tp8255
a(I38017
g4847
tp8256
a(I38018
g87
tp8257
a(I38019
g87
tp8258
a(I38020
g87
tp8259
a(I38029
g87
tp8260
a(I38030
g87
tp8261
a(I38044
g87
tp8262
a(I38064
g87
tp8263
a(I38065
g87
tp8264
a(I38067
g87
tp8265
a(I38068
g87
tp8266
a(I38070
g87
tp8267
a(I38071
g87
tp8268
a(I38073
g87
tp8269
a(I38110
g87
tp8270
a(I38111
g4847
tp8271
a(I38112
g4847
tp8272
a(I38113
g87
tp8273
a(I38114
g87
tp8274
a(I38115
g87
tp8275
a(I38119
g87
tp8276
a(I38122
g87
tp8277
a(I38123
g87
tp8278
a(I38125
g87
tp8279
a(I38127
g87
tp8280
a(I38153
g87
tp8281
a(I38158
g268
tp8282
a(I38159
g268
tp8283
a(I38160
g268
tp8284
a(I38162
g4847
tp8285
a(I38163
g268
tp8286
a(I38164
g268
tp8287
a(I38169
g268
tp8288
a(I38171
g268
tp8289
a(I38173
g268
tp8290
a(I38192
g87
tp8291
a(I38196
g87
tp8292
a(I38203
g87
tp8293
a(I38204
g87
tp8294
a(I38206
g87
tp8295
a(I38207
g4847
tp8296
a(I38208
g4847
tp8297
a(I38209
g87
tp8298
a(I38211
g87
tp8299
a(I38215
g87
tp8300
a(I38216
g87
tp8301
a(I38218
g87
tp8302
a(I38219
g87
tp8303
a(I38221
g87
tp8304
a(I38223
g85
tp8305
a(I38237
g85
tp8306
a(I38255
g133
tp8307
a(I38256
g133
tp8308
a(I38258
g4870
tp8309
a(I38259
g133
tp8310
a(I38260
g133
tp8311
a(I38261
g133
tp8312
a(I38263
g133
tp8313
a(I38276
g133
tp8314
a(I38303
g133
tp8315
a(I38304
g94
tp8316
a(I38305
g94
tp8317
a(I38306
g133
tp8318
a(I38313
g133
tp8319
a(I38315
g133
tp8320
a(I38318
g133
tp8321
a(I38319
g133
tp8322
a(I38351
g219
tp8323
a(I38352
g219
tp8324
a(I38353
g219
tp8325
a(I38354
g219
tp8326
a(I38355
g4870
tp8327
a(I38356
g219
tp8328
a(I38358
g219
tp8329
a(I38361
g219
tp8330
a(I38362
g219
tp8331
a(I38367
g465
tp8332
a(I38374
g465
tp8333
a(I38375
g465
tp8334
a(I38377
g85
tp8335
a(I38387
g85
tp8336
a(I38388
g518
tp8337
a(I38396
g163
tp8338
a(I38397
g163
tp8339
a(I38398
g163
tp8340
a(I38399
g163
tp8341
a(I38400
g163
tp8342
a(I38402
g4915
tp8343
a(I38403
g163
tp8344
a(I38404
g163
tp8345
a(I38405
g163
tp8346
a(I38410
g160
tp8347
a(I38411
g160
tp8348
a(I38412
g160
tp8349
a(I38420
g160
tp8350
a(I38448
g160
tp8351
a(I38449
g160
tp8352
a(I38450
g160
tp8353
a(I38451
g160
tp8354
a(I38452
g160
tp8355
a(I38454
g160
tp8356
a(I38455
g160
tp8357
a(I38457
g160
tp8358
a(I38490
g176
tp8359
a(I38494
g176
tp8360
a(I38495
g219
tp8361
a(I38496
g180
tp8362
a(I38497
g180
tp8363
a(I38498
g180
tp8364
a(I38499
g176
tp8365
a(I38500
g160
tp8366
a(I38505
g160
tp8367
a(I38506
g160
tp8368
a(I38507
g160
tp8369
a(I38508
g160
tp8370
a(I38536
g160
tp8371
a(I38542
g165
tp8372
a(I38543
g165
tp8373
a(I38544
g203
tp8374
a(I38545
g203
tp8375
a(I38546
g219
tp8376
a(I38547
g165
tp8377
a(I38548
g165
tp8378
a(I38551
g165
tp8379
a(I38553
g165
tp8380
a(I38554
g165
tp8381
a(I38555
g165
tp8382
a(I38556
g165
tp8383
a(I38561
g165
tp8384
a(I38588
g160
tp8385
a(I38590
g165
tp8386
a(I38591
g165
tp8387
a(I38592
g203
tp8388
a(I38593
g203
tp8389
a(I38594
g165
tp8390
a(I38602
g165
tp8391
a(I38604
g165
tp8392
a(I38607
g165
tp8393
a(I38621
g165
tp8394
a(I38629
g165
tp8395
a(I38633
g160
tp8396
a(I38638
g160
tp8397
a(I38639
g160
tp8398
a(I38640
g160
tp8399
a(I38642
g217
tp8400
a(I38643
g160
tp8401
a(I38644
g160
tp8402
a(I38648
g160
tp8403
a(I38651
g160
tp8404
a(I38652
g160
tp8405
a(I38662
g160
tp8406
a(I38664
g160
tp8407
a(I38672
g160
tp8408
a(I38685
g217
tp8409
a(I38686
g217
tp8410
a(I38687
g219
tp8411
a(I38688
g219
tp8412
a(I38689
g180
tp8413
a(I38690
g180
tp8414
a(I38691
g219
tp8415
a(I38693
g165
tp8416
a(I38699
g165
tp8417
a(I38700
g165
tp8418
a(I38702
g165
tp8419
a(I38712
g160
tp8420
a(I38721
g160
tp8421
a(I38723
g160
tp8422
a(I38731
g160
tp8423
a(I38734
g165
tp8424
a(I38735
g165
tp8425
a(I38736
g203
tp8426
a(I38737
g203
tp8427
a(I38738
g165
tp8428
a(I38739
g219
tp8429
a(I38740
g165
tp8430
a(I38743
g165
tp8431
a(I38745
g165
tp8432
a(I38747
g165
tp8433
a(I38748
g165
tp8434
a(I38761
g165
tp8435
a(I38777
g160
tp8436
a(I38782
g160
tp8437
a(I38783
g160
tp8438
a(I38784
g163
tp8439
a(I38785
g4915
tp8440
a(I38786
g160
tp8441
a(I38787
g160
tp8442
a(I38796
g160
tp8443
a(I38797
g160
tp8444
a(I38799
g160
tp8445
a(I38819
g160
tp8446
a(I38831
g160
tp8447
a(I38833
g160
tp8448
a(I38834
g160
tp8449
a(I38835
g160
tp8450
a(I38838
g160
tp8451
a(I38839
g160
tp8452
a(I38841
g160
tp8453
a(I38842
g160
tp8454
a(I38874
g160
tp8455
a(I38876
g16
tp8456
a(I38877
g16
tp8457
a(I38878
g160
tp8458
a(I38879
g160
tp8459
a(I38880
g16
tp8460
a(I38882
g160
tp8461
a(I38885
g160
tp8462
a(I38888
g160
tp8463
a(I38889
g160
tp8464
a(I38890
g160
tp8465
a(I38891
g160
tp8466
a(I38927
g163
tp8467
a(I38928
g163
tp8468
a(I38931
g163
tp8469
a(I38932
g163
tp8470
a(I38937
g163
tp8471
a(I38938
g163
tp8472
a(I38939
g163
tp8473
a(I38941
g163
tp8474
a(I38952
g163
tp8475
a(I38964
g163
tp8476
a(I38974
g163
tp8477
a(I38976
g163
tp8478
a(I38977
g268
tp8479
a(I38978
g268
tp8480
a(I38979
g163
tp8481
a(I38980
g163
tp8482
a(I38981
g163
tp8483
a(I38983
g163
tp8484
a(I38984
g163
tp8485
a(I38989
g160
tp8486
a(I38990
g160
tp8487
a(I39023
g163
tp8488
a(I39024
g163
tp8489
a(I39025
g163
tp8490
a(I39026
g163
tp8491
a(I39027
g163
tp8492
a(I39028
g163
tp8493
a(I39034
g163
tp8494
a(I39035
g163
tp8495
a(I39037
g163
tp8496
a(I39039
g163
tp8497
a(I39050
g163
tp8498
a(I39052
g160
tp8499
a(I39070
g165
tp8500
a(I39071
g165
tp8501
a(I39072
g165
tp8502
a(I39073
g94
tp8503
a(I39074
g94
tp8504
a(I39075
g165
tp8505
a(I39076
g165
tp8506
a(I39077
g165
tp8507
a(I39079
g165
tp8508
a(I39112
g165
tp8509
a(I39115
g165
tp8510
a(I39118
g165
tp8511
a(I39119
g165
tp8512
a(I39120
g203
tp8513
a(I39121
g203
tp8514
a(I39122
g165
tp8515
a(I39123
g165
tp8516
a(I39124
g165
tp8517
a(I39125
g165
tp8518
a(I39131
g165
tp8519
a(I39133
g165
tp8520
a(I39135
g165
tp8521
a(I39136
g165
tp8522
a(I39146
g165
tp8523
a(I39148
g165
tp8524
a(I39153
g165
tp8525
a(I39155
g203
tp8526
a(I39157
g346
tp8527
a(I39158
g339
tp8528
a(I39159
g339
tp8529
a(I39163
g346
tp8530
a(I39164
g346
tp8531
a(I39165
g346
tp8532
a(I39166
g346
tp8533
a(I39167
g346
tp8534
a(I39168
g346
tp8535
a(I39169
g9
tp8536
a(I39170
g16
tp8537
a(I39171
g16
tp8538
a(I39172
g9
tp8539
a(I39173
g9
tp8540
a(I39179
g9
tp8541
a(I39181
g9
tp8542
a(I39182
g9
tp8543
a(I39183
g9
tp8544
a(I39203
g9
tp8545
a(I39220
g9
tp8546
a(I39221
g9
tp8547
a(I39262
g9
tp8548
a(I39263
g9
tp8549
a(I39264
g4766
tp8550
a(I39265
g9
tp8551
a(I39266
g9
tp8552
a(I39267
g9
tp8553
a(I39272
g9
tp8554
a(I39273
g9
tp8555
a(I39275
g9
tp8556
a(I39276
g9
tp8557
a(I39278
g9
tp8558
a(I39297
g9
tp8559
a(I39310
g346
tp8560
a(I39311
g346
tp8561
a(I39312
g346
tp8562
a(I39313
g346
tp8563
a(I39314
g346
tp8564
a(I39315
g346
tp8565
a(I39316
g346
tp8566
a(I39320
g346
tp8567
a(I39321
g346
tp8568
a(I39322
g346
tp8569
a(I39323
g346
tp8570
a(I39337
g346
tp8571
a(I39338
g346
tp8572
a(I39344
g346
tp8573
a(I39358
g346
tp8574
a(I39359
g4788
tp8575
a(I39360
g4788
tp8576
a(I39361
g346
tp8577
a(I39362
g9
tp8578
a(I39363
g9
tp8579
a(I39364
g9
tp8580
a(I39372
g9
tp8581
a(I39373
g9
tp8582
a(I39375
g9
tp8583
a(I39393
g9
tp8584
a(I39408
g9
tp8585
a(I39409
g9
tp8586
a(I39410
g9
tp8587
a(I39411
g9
tp8588
a(I39413
g9
tp8589
a(I39414
g9
tp8590
a(I39415
g9
tp8591
a(I39416
g9
tp8592
a(I39454
g9
tp8593
a(I39455
g9
tp8594
a(I39456
g9
tp8595
a(I39457
g4766
tp8596
a(I39459
g4766
tp8597
a(I39460
g9
tp8598
a(I39465
g9
tp8599
a(I39466
g9
tp8600
a(I39467
g9
tp8601
a(I39469
g9
tp8602
a(I39500
g9
tp8603
a(I39502
g346
tp8604
a(I39503
g346
tp8605
a(I39504
g346
tp8606
a(I39507
g346
tp8607
a(I39508
g346
tp8608
a(I39511
g346
tp8609
a(I39512
g346
tp8610
a(I39514
g346
tp8611
a(I39515
g346
tp8612
a(I39516
g424
tp8613
a(I39529
g424
tp8614
a(I39530
g427
tp8615
a(I39531
g219
tp8616
a(I39535
g219
tp8617
a(I39537
g133
tp8618
a(I39539
g430
tp8619
a(I39547
g133
tp8620
a(I39548
g133
tp8621
a(I39549
g133
tp8622
a(I39550
g133
tp8623
a(I39551
g133
tp8624
a(I39552
g4870
tp8625
a(I39553
g4870
tp8626
a(I39554
g133
tp8627
a(I39555
g133
tp8628
a(I39556
g85
tp8629
a(I39557
g85
tp8630
a(I39561
g85
tp8631
a(I39564
g85
tp8632
a(I39565
g85
tp8633
a(I39566
g85
tp8634
a(I39588
g85
tp8635
a(I39600
g85
tp8636
a(I39601
g85
tp8637
a(I39602
g85
tp8638
a(I39603
g85
tp8639
a(I39606
g85
tp8640
a(I39610
g85
tp8641
a(I39612
g85
tp8642
a(I39646
g85
tp8643
a(I39647
g85
tp8644
a(I39648
g4847
tp8645
a(I39649
g87
tp8646
a(I39650
g87
tp8647
a(I39651
g85
tp8648
a(I39656
g85
tp8649
a(I39657
g85
tp8650
a(I39659
g85
tp8651
a(I39660
g85
tp8652
a(I39661
g85
tp8653
a(I39694
g465
tp8654
a(I39695
g465
tp8655
a(I39696
g465
tp8656
a(I39698
g219
tp8657
a(I39699
g465
tp8658
a(I39700
g465
tp8659
a(I39703
g465
tp8660
a(I39705
g465
tp8661
a(I39707
g465
tp8662
a(I39734
g85
tp8663
a(I39743
g163
tp8664
a(I39744
g4847
tp8665
a(I39745
g163
tp8666
a(I39746
g163
tp8667
a(I39747
g163
tp8668
a(I39754
g163
tp8669
a(I39755
g163
tp8670
a(I39756
g163
tp8671
a(I39757
g163
tp8672
a(I39761
g163
tp8673
a(I39770
g85
tp8674
a(I39790
g163
tp8675
a(I39792
g163
tp8676
a(I39794
g4847
tp8677
a(I39795
g163
tp8678
a(I39796
g163
tp8679
a(I39797
g163
tp8680
a(I39798
g163
tp8681
a(I39800
g163
tp8682
a(I39839
g163
tp8683
a(I39840
g4847
tp8684
a(I39841
g1419
tp8685
a(I39842
g163
tp8686
a(I39847
g163
tp8687
a(I39849
g85
tp8688
a(I39851
g85
tp8689
a(I39852
g85
tp8690
a(I39853
g85
tp8691
a(I39886
g465
tp8692
a(I39888
g465
tp8693
a(I39889
g465
tp8694
a(I39891
g465
tp8695
a(I39892
g219
tp8696
a(I39893
g465
tp8697
a(I39898
g465
tp8698
a(I39900
g465
tp8699
a(I39902
g465
tp8700
a(I39911
g85
tp8701
a(I39912
g83
tp8702
a(I39921
g518
tp8703
a(I39932
g160
tp8704
a(I39933
g160
tp8705
a(I39934
g160
tp8706
a(I39935
g160
tp8707
a(I39936
g163
tp8708
a(I39937
g4915
tp8709
a(I39938
g163
tp8710
a(I39939
g163
tp8711
a(I39940
g160
tp8712
a(I39944
g160
tp8713
a(I39947
g160
tp8714
a(I39948
g160
tp8715
a(I39949
g160
tp8716
a(I39950
g160
tp8717
a(I39982
g160
tp8718
a(I39984
g160
tp8719
a(I39985
g160
tp8720
a(I39986
g160
tp8721
a(I39987
g160
tp8722
a(I39989
g160
tp8723
a(I39990
g160
tp8724
a(I39992
g160
tp8725
a(I40030
g160
tp8726
a(I40031
g217
tp8727
a(I40032
g217
tp8728
a(I40033
g180
tp8729
a(I40034
g16
tp8730
a(I40035
g160
tp8731
a(I40037
g160
tp8732
a(I40040
g160
tp8733
a(I40042
g160
tp8734
a(I40043
g160
tp8735
a(I40073
g160
tp8736
a(I40077
g165
tp8737
a(I40079
g165
tp8738
a(I40080
g203
tp8739
a(I40081
g203
tp8740
a(I40082
g219
tp8741
a(I40083
g165
tp8742
a(I40084
g165
tp8743
a(I40089
g165
tp8744
a(I40091
g165
tp8745
a(I40092
g165
tp8746
a(I40118
g165
tp8747
a(I40119
g160
tp8748
a(I40123
g160
tp8749
a(I40126
g165
tp8750
a(I40128
g165
tp8751
a(I40129
g165
tp8752
a(I40130
g165
tp8753
a(I40133
g165
tp8754
a(I40137
g165
tp8755
a(I40138
g165
tp8756
a(I40139
g165
tp8757
a(I40140
g165
tp8758
a(I40159
g165
tp8759
a(I40160
g160
tp8760
a(I40175
g160
tp8761
a(I40176
g163
tp8762
a(I40177
g160
tp8763
a(I40178
g160
tp8764
a(I40179
g160
tp8765
a(I40180
g160
tp8766
a(I40182
g160
tp8767
a(I40183
g160
tp8768
a(I40184
g160
tp8769
a(I40187
g160
tp8770
a(I40208
g160
tp8771
a(I40223
g160
tp8772
a(I40224
g219
tp8773
a(I40225
g180
tp8774
a(I40226
g180
tp8775
a(I40227
g180
tp8776
a(I40228
g165
tp8777
a(I40232
g165
tp8778
a(I40233
g165
tp8779
a(I40234
g165
tp8780
a(I40235
g165
tp8781
a(I40256
g160
tp8782
a(I40262
g160
tp8783
a(I40270
g165
tp8784
a(I40272
g203
tp8785
a(I40274
g203
tp8786
a(I40275
g165
tp8787
a(I40276
g219
tp8788
a(I40277
g165
tp8789
a(I40279
g165
tp8790
a(I40280
g165
tp8791
a(I40282
g165
tp8792
a(I40285
g165
tp8793
a(I40288
g165
tp8794
a(I40301
g165
tp8795
a(I40307
g165
tp8796
a(I40313
g160
tp8797
a(I40317
g160
tp8798
a(I40318
g634
tp8799
a(I40319
g634
tp8800
a(I40320
g634
tp8801
a(I40321
g160
tp8802
a(I40322
g160
tp8803
a(I40323
g634
tp8804
a(I40325
g160
tp8805
a(I40329
g160
tp8806
a(I40330
g160
tp8807
a(I40333
g160
tp8808
a(I40341
g160
tp8809
a(I40342
g160
tp8810
a(I40356
g619
tp8811
a(I40359
g219
tp8812
a(I40363
g219
tp8813
a(I40367
g619
tp8814
a(I40368
g203
tp8815
a(I40369
g16
tp8816
a(I40370
g16
tp8817
a(I40371
g16
tp8818
a(I40372
g16
tp8819
a(I40376
g163
tp8820
a(I40377
g160
tp8821
a(I40378
g160
tp8822
a(I40380
g160
tp8823
a(I40382
g160
tp8824
a(I40383
g83
tp8825
a(I40384
g518
tp8826
a(I40396
g518
tp8827
a(I40412
g4
tp8828
a(I40413
g4
tp8829
a(I40414
g518
tp8830
a(I40415
g83
tp8831
a(I40416
g4731
tp8832
a(I40418
g160
tp8833
a(I40419
g160
tp8834
a(I40425
g160
tp8835
a(I40426
g83
tp8836
a(I40429
g518
tp8837
a(I40472
g518
tp8838
a(I40487
g518
tp8839
a.